Archive member included because of file (symbol)

library/liboem/sun50iw10p1/libar100s.a(obj-in.o)
                              driver/obj-in.o (ccu_get_sclk_freq)

Allocating common symbols
Common symbol       size              file

little_endian_used  0x4               library/liboem/sun50iw10p1/libar100s.a(obj-in.o)
wakeup_source       0x4               service/obj-in.o
pintc_regs          0x4               driver/obj-in.o
ccu_pll_periph1_reg_addr
                    0x4               library/liboem/sun50iw10p1/libar100s.a(obj-in.o)
before_crc          0x4               service/obj-in.o
after_crc           0x4               service/obj-in.o
pwatchdog_regs      0x4               driver/obj-in.o
debugger_buffer     0x80              system/obj-in.o
ccu_pll_ddr0_reg_addr
                    0x4               library/liboem/sun50iw10p1/libar100s.a(obj-in.o)
isr_table           0x128             driver/obj-in.o
apbs2_notifier_head
                    0x4               library/liboem/sun50iw10p1/libar100s.a(obj-in.o)
delay_timer         0x4               driver/obj-in.o
ccu_pll_periph0_reg_addr
                    0x4               library/liboem/sun50iw10p1/libar100s.a(obj-in.o)
ccu_pll_c0_cpux_reg_addr
                    0x4               library/liboem/sun50iw10p1/libar100s.a(obj-in.o)
ptimerc_regs        0x4               driver/obj-in.o
ccu_reg_addr        0x4               library/liboem/sun50iw10p1/libar100s.a(obj-in.o)

Memory Configuration

Name             Origin             Length             Attributes
vectors          0x00000000         0x00004000
paras            0x00004000         0x000000f0
ram              0x000040f0         0x0000ff10
dram             0x48100000         0x00040000
*default*        0x00000000         0xffffffff

Linker script and memory map

LOAD arch/obj-in.o
LOAD driver/obj-in.o
LOAD library/obj-in.o
LOAD service/obj-in.o
LOAD system/obj-in.o

.vectors        0x00000000      0xe08
 *(.vectors)
 .vectors       0x00000000      0xe08 library/liboem/sun50iw10p1/libar100s.a(obj-in.o)

dts_paras       0x00004000       0x88
                0x00004000                paras_start_addr = .
 *(dts_paras)
 dts_paras      0x00004000       0x88 system/obj-in.o
                0x00004000                arisc_para
                0x00004088                paras_end_addr = .

.text           0x000040f0     0xe444
 *arch*(.text)
 *driver*(.text)
 .text          0x000040f0     0x343c driver/obj-in.o
                0x000040f0                intc_init
                0x00004148                intc_exit
                0x00004170                intc_enable_interrupt
                0x00004220                intc_disable_interrupt
                0x000042b8                intc_interrupt_is_enabled
                0x0000432c                intc_get_current_interrupt
                0x00004354                intc_set_mask
                0x00004418                intc_set_group_config
                0x0000451c                isr_default
                0x0000454c                interrupt_init
                0x000045a0                interrupt_exit
                0x000045bc                interrupt_enable
                0x000045d4                interrupt_disable
                0x000045ec                interrupt_set_nmi_trigger
                0x00004614                interrupt_set_mask
                0x0000462c                interrupt_set_group_config
                0x00004644                install_isr
                0x00004674                uninstall_isr
                0x000046dc                interrupt_entry
                0x0000471c                interrupt_query_pending
                0x0000479c                interrupt_clear_pending
                0x00004800                interrupt_get_current_intno
                0x00004818                interrupt_get_enabled
                0x00004830                pin_init
                0x00004838                pin_exit
                0x00004840                pin_set_status
                0x00004848                pin_set_multi_sel
                0x000048c0                pin_set_pull
                0x00004938                pin_set_drive
                0x000049b0                pin_write_data
                0x00004a1c                pin_read_data
                0x00004a5c                is_wanted_gpio_int
                0x00004a90                pin_set_int_trigger_mode
                0x00004b1c                timer_hosc_onoff_cb
                0x00004c6c                timer_isr
                0x00004d28                timer_init
                0x00004e2c                timer_exit
                0x00004e84                timer_request
                0x00004f68                timer_release
                0x00004f90                timer_start
                0x00005064                timer_stop
                0x0000510c                time_mdelay
                0x000051c4                cnt64_udelay
                0x00005244                time_udelay
                0x000052dc                time_cdelay
                0x000052f4                uart_init
                0x000053f8                uart_exit
                0x00005470                uart_putc
                0x000054d4                uart_get
                0x0000553c                uart_puts
                0x000055c0                uart_set_baudrate
                0x000056f4                uart_clkchangecb
                0x00005798                uart_get_baudrate
                0x00005984                twi_clkchangecb
                0x000059f0                twi_init
                0x00005b08                twi_exit
                0x00005b10                twi_byte_rw
                0x000061b8                twi_read
                0x00006248                twi_write
                0x000062d8                is_twi_lock
                0x000062f0                twi_send_clk_9pulse
                0x000063d8                twi_get_status
                0x0000641c                twi_standby_init
                0x00006524                twi_standby_exit
                0x00006608                hwmsgbox_init
                0x000066c8                hwmsgbox_exit
                0x000066f8                hwmsgbox_wait_queue_not_full
                0x00006758                hwmsgbox_wait_queue_not_empty
                0x000067c0                hwmsgbox_send_message
                0x00006a3c                hwmsgbox_feedback_message
                0x00006b5c                hwmsgbox_query_message
                0x00006d28                hwmsgbox_super_standby_init
                0x00006d54                hwmsgbox_super_standby_exit
                0x00006f68                watchdog_reset
                0x00006fd0                pmu_shutdown
                0x00007068                pmu_reset
                0x00007108                pmu_charging_reset
                0x0000718c                pmu_set_voltage
                0x000071b4                pmu_get_voltage
                0x000071dc                pmu_set_voltage_state
                0x0000723c                pmu_get_voltage_state
                0x00007264                pmu_query_event
                0x0000726c                pmu_clear_pendings
                0x00007274                pmu_chip_init
                0x0000727c                pmu_reg_write
                0x00007298                pmu_reg_read
                0x000072b4                pmu_reg_write_para
                0x000072e4                pmu_reg_read_para
                0x00007314                nmi_int_handler
                0x00007354                pmu_init
                0x00007394                pmu_exit
                0x0000739c                is_pmu_exist
                0x000073ac                pmu_standby_init
                0x000073dc                pmu_standby_exit
                0x0000740c                watchdog_init
                0x00007488                watchdog_exit
                0x000074b0                watchdog_enable
                0x000074f0                watchdog_disable
 *library*(.text)
 .text          0x0000752c     0x25c0 library/obj-in.o
                0x0000752c                itoa
                0x0000765c                utoa
                0x0000774c                hexdump
                0x000077f4                hstr2int
                0x0000789c                dstr2int
                0x000078e4                strlen
                0x00007904                strnlen
                0x00007934                strcpy
                0x0000795c                strncat
                0x000079d4                strcmp
                0x00007a1c                strchr
                0x00007a50                memcpy
                0x00007b0c                memmove
                0x00007b98                memcmp
                0x00007bd4                memchr
                0x00007c14                memset
                0x00007c3c                sprintf
                0x00007d58                fdt_check_header
                0x00007e6c                fdt_offset_ptr
                0x00007f38                fdt_next_tag
                0x000080b4                _fdt_check_node_offset
                0x0000810c                _fdt_check_prop_offset
                0x00008164                fdt_next_node
                0x00008274                fdt_first_subnode
                0x000082bc                fdt_next_subnode
                0x0000832c                _fdt_find_string
                0x000083b4                fdt_move
                0x000085e0                fdt_string
                0x00008618                fdt_get_mem_rsv
                0x000086c0                fdt_num_mem_rsv
                0x00008720                fdt_subnode_offset_namelen
                0x00008850                fdt_subnode_offset
                0x000088a0                fdt_get_name
                0x00008948                fdt_first_property_offset
                0x0000898c                fdt_next_property_offset
                0x000089d0                fdt_get_property_by_offset
                0x00008a74                fdt_get_property_namelen
                0x00008ba0                fdt_get_property
                0x00008c00                fdt_getprop_namelen
                0x00008c2c                fdt_getprop_by_offset
                0x00008cb8                fdt_getprop
                0x00008d18                fdt_getprop_u32
                0x00008ddc                fdt_get_phandle
                0x00008e90                fdt_get_alias_namelen
                0x00008f0c                fdt_path_offset
                0x0000904c                fdt_get_alias
                0x0000908c                fdt_get_path
                0x00009258                fdt_supernode_atdepth_offset
                0x00009360                fdt_node_depth
                0x000093a4                fdt_parent_offset
                0x00009400                fdt_node_offset_by_prop_value
                0x000094dc                fdt_node_offset_by_phandle
                0x00009578                fdt_stringlist_contains
                0x00009628                fdt_stringlist_count
                0x000096b4                fdt_stringlist_search
                0x00009790                fdt_stringlist_get
                0x00009880                fdt_node_check_compatible
                0x000098e0                fdt_node_offset_by_compatible
                0x00009978                fdt_strerror
                0x000099e8                fdt_address_cells
                0x00009a6c                fdt_size_cells
 *system*(.text)
 .text          0x00009aec      0xc04 system/obj-in.o
                0x00009aec                notifier_init
                0x00009b30                notifier_exit
                0x00009b38                notifier_insert
                0x00009c04                notifier_delete
                0x00009c9c                notifier_notify
                0x00009cf8                message_valid
                0x00009d08                message_manager_init
                0x00009d10                message_manager_exit
                0x00009d18                message_coming_notify
                0x00009f3c                debugger_init
                0x00009f58                debugger_exit
                0x00009f60                debugger_putc
                0x00009f84                debugger_get
                0x00009f9c                debugger_puts
                0x00009fb8                debugger_printf
                0x0000a304                set_debug_level
                0x0000a358                daemon_register_service
                0x0000a378                startup_entry
                0x0000a6cc                arisc_para_init
                0x0000a6e8                set_paras
 *service*(.text)
 .text          0x0000a6f0     0x15c4 service/obj-in.o
                0x0000a6f0                standby_init
                0x0000a730                standby_exit
                0x0000a738                long_jump
                0x0000a754                standby_set_dram_crc_paras
                0x0000a780                standby_dram_crc_enable
                0x0000a790                standby_dram_crc
                0x0000a8d0                default_wakeup_handler
                0x0000a95c                wakeup_timer_init
                0x0000a9a8                wakeup_timer_start
                0x0000a9e4                wakeup_timer_stop
                0x0000aa00                set_wakeup_src
                0x0000ab3c                clear_wakeup_src
                0x0000ac18                is_suspend_lock
                0x0000ac28                cpu_op
                0x0000bb78                sys_op
 .text          0x0000bcb4     0x6880 library/liboem/sun50iw10p1/libar100s.a(obj-in.o)
                0x0000bcb4                icache_coherent
                0x0000bd70                cpu_init
                0x0000bda4                cpu_disable_int
                0x0000bdcc                cpu_enable_int
                0x0000bddc                exit
                0x0000bdfc                cpu_enter_doze
                0x0000c208                __udivsi3
                0x0000c304                __divsi3
                0x0000c368                __umodsi3
                0x0000c388                __modsi3
                0x0000c3e4                cpu_exception_handler_entry_c
                0x0000c558                start_softtimer
                0x0000c56c                stop_softtimer
                0x0000c58c                add_softtimer
                0x0000c5f0                current_time_tick
                0x0000c604                msec_to_ticks
                0x0000c638                time_ticks_init
                0x0000c7fc                is_old_cpureg_layout
                0x0000c840                cpucfg_init
                0x0000c87c                cpucfg_exit
                0x0000c8a4                cpucfg_set_little_endian_address
                0x0000c95c                cpucfg_remove_little_endian_address
                0x0000ca5c                cpucfg_set_cpu_reset_state
                0x0000caac                cpucfg_set_cpu_reset_state_ext
                0x0000cb04                cpucfg_counter_clear
                0x0000cb34                cpucfg_counter_read
                0x0000cb88                cpucfg_counter_ctrl
                0x0000cba0                cpucfg_set_cpux_jump_addr
                0x0000cbb8                cpucfg_acinactm_process
                0x0000cc04                cpucfg_wait_l2_enter_wfi
                0x0000cc28                cpucfg_l1l2_reset_by_hardware
                0x0000cc74                cpucfg_l1l2_reset_by_hardware_ext
                0x0000cd10                cpucfg_cluster0_process
                0x0000cd84                cpucfg_cluster0_process_ext
                0x0000ce78                cpucfg_cpu_suspend
                0x0000cfec                cpucfg_cpu_suspend_late
                0x0000d0fc                cpucfg_cpu_resume
                0x0000d17c                set_secondary_entry
                0x0000d1bc                sun50i_set_AA32nAA64
                0x0000d27c                cpucfg_cpu_resume_early
                0x0000d3f0                cpu_power_up
                0x0000d5e0                cpu_power_down
                0x0000e534                mctl_phy_dx0_bit_delay_compensation_standby
                0x00011454                dram_power_save_process
                0x000115cc                dram_power_up_process
                0x00011850                iosc_freq_init
                0x000119c8                ccu_init
                0x00011a84                ccu_exit
                0x00011a8c                save_state_flag
                0x00011aa0                read_state_flag
                0x00011ab4                ccu_set_mclk_onoff
                0x00011bfc                ccu_set_poweroff_gating_state
                0x00011dc0                ccu_set_poweroff_gating_state_ext
                0x00011f10                ccu_24mhosc_reg_cb
                0x00011f30                ccu_24mhosc_disable
                0x00011fd4                ccu_24mhosc_enable
                0x000120ac                is_hosc_lock
                0x000120bc                ccu_set_mclk_reset
                0x00012390                ccu_reset_module
                0x000123c8                ccu_get_sclk_freq
                0x00012488                ccu_set_sclk_onoff
                0x00012534                rodata_vma = ALIGN (0x4)

.rodata         0x00012534      0xdc0
 *arch*(.rodata.*)
 *driver*(.rodata.*)
 .rodata.str1.1
                0x00012534      0x250 driver/obj-in.o
 *library*(.rodata.*)
 .rodata.str1.1
                0x00012784      0x143 library/obj-in.o
                                0x14d (size before relaxing)
 *system*(.rodata.*)
 .rodata.str1.1
                0x000128c7      0x22d system/obj-in.o
                                0x22e (size before relaxing)
 *service*(.rodata.*)
 .rodata.str1.1
                0x00012af4      0x1f2 service/obj-in.o
                                0x1fc (size before relaxing)
 *(.rodata.*)
 .rodata.str1.1
                0x00012ce6      0x3ec library/liboem/sun50iw10p1/libar100s.a(obj-in.o)
 *fill*         0x000130d2        0x2 00
 .rodata        0x000130d4       0x6c library/obj-in.o
 .rodata        0x00013140       0x5c service/obj-in.o
 .rodata        0x0001319c      0x158 library/liboem/sun50iw10p1/libar100s.a(obj-in.o)
                0x000132f4                shbss_vma = ALIGN (0x4)

.shbss
 *(.shbss)
                0x000132f4                data_vma = ALIGN (0x4)

.data           0x000132f4      0x13c
 *(.data)
 .data          0x000132f4       0xdc driver/obj-in.o
                0x000132f4                timer_lock
                0x00013330                uart_lock
                0x00013334                aw1657_onoff_reg_bitmap
                0x000133bc                pmu_axp806_ops
                0x000133cc                axp_power_max
 .data          0x000133d0        0x0 library/obj-in.o
 .data          0x000133d0        0xc service/obj-in.o
                0x000133d0                dram_crc_src
                0x000133d4                dram_crc_len
 .data          0x000133dc        0x8 system/obj-in.o
                0x000133dc                debug_level
                0x000133e0                print_timeflg
 .data          0x000133e4       0x4c library/liboem/sun50iw10p1/libar100s.a(obj-in.o)
                0x000133e4                exception_strings
                0x00013424                soc_version_a
                0x00013428                iosc_freq
                0x0001342c                losc_freq

.bss            0x00013430      0x3ac
                0x00013430                bss_start_addr = ALIGN (0x8)
 *(.bss)
 .bss           0x00013430       0x14 driver/obj-in.o
                0x00013430                uart_pin_not_used
                0x00013438                twi_lock
 .bss           0x00013444        0x0 library/obj-in.o
 .bss           0x00013444       0xa8 service/obj-in.o
                0x00013444                dram_crc_enable
 .bss           0x000134ec       0xe4 system/obj-in.o
 .bss           0x000135d0       0x2c library/liboem/sun50iw10p1/libar100s.a(obj-in.o)
                0x000135f0                hosc_notifier_list
 *(COMMON)
 COMMON         0x000135fc      0x138 driver/obj-in.o
                0x000135fc                pintc_regs
                0x00013600                pwatchdog_regs
                0x00013604                isr_table
                0x0001372c                delay_timer
                0x00013730                ptimerc_regs
 COMMON         0x00013734        0xc service/obj-in.o
                0x00013734                wakeup_source
                0x00013738                before_crc
                0x0001373c                after_crc
 COMMON         0x00013740       0x80 system/obj-in.o
                0x00013740                debugger_buffer
 COMMON         0x000137c0       0x1c library/liboem/sun50iw10p1/libar100s.a(obj-in.o)
                0x000137c0                little_endian_used
                0x000137c4                ccu_pll_periph1_reg_addr
                0x000137c8                ccu_pll_ddr0_reg_addr
                0x000137cc                apbs2_notifier_head
                0x000137d0                ccu_pll_periph0_reg_addr
                0x000137d4                ccu_pll_c0_cpux_reg_addr
                0x000137d8                ccu_reg_addr
                0x000137e0                bss_end_addr = ALIGN (0x8)

.stack          0x000137dc      0x400
                0x000137e0                stack_limit_addr = ALIGN (0x8)
 *(.stack)
 .stack         0x000137dc      0x400 library/liboem/sun50iw10p1/libar100s.a(obj-in.o)
                0x00013be0                stack_base_addr = ALIGN (0x8)

.text5          0x48100000        0x4 load address 0x00014000
                0x48100000        0x4 LONG 0x0
LOAD library/liboem/sun50iw10p1/libar100s.a
OUTPUT(scp.elf elf32-or32)

.comment        0x00000000       0x51
 .comment       0x00000000       0x51 driver/obj-in.o
                                0x3d8 (size before relaxing)
 .comment       0x00000000      0x1ec library/obj-in.o
 .comment       0x00000000      0x148 service/obj-in.o
 .comment       0x00000000      0x19a system/obj-in.o
 .comment       0x00000000      0x334 library/liboem/sun50iw10p1/libar100s.a(obj-in.o)

.debug_aranges  0x00000000      0x4a0
 .debug_aranges
                0x00000000      0x180 driver/obj-in.o
 .debug_aranges
                0x00000180       0xc0 library/obj-in.o
 .debug_aranges
                0x00000240       0x80 service/obj-in.o
 .debug_aranges
                0x000002c0       0xa0 system/obj-in.o
 .debug_aranges
                0x00000360      0x140 library/liboem/sun50iw10p1/libar100s.a(obj-in.o)

.debug_pubnames
                0x00000000     0x19aa
 .debug_pubnames
                0x00000000      0x95e driver/obj-in.o
 .debug_pubnames
                0x0000095e      0x52a library/obj-in.o
 .debug_pubnames
                0x00000e88      0x1dd service/obj-in.o
 .debug_pubnames
                0x00001065      0x22e system/obj-in.o
 .debug_pubnames
                0x00001293      0x717 library/liboem/sun50iw10p1/libar100s.a(obj-in.o)

.debug_info     0x00000000     0xef9c
 .debug_info    0x00000000     0x3d48 driver/obj-in.o
 .debug_info    0x00003d48     0x2227 library/obj-in.o
 .debug_info    0x00005f6f     0x1748 service/obj-in.o
 .debug_info    0x000076b7     0x10f6 system/obj-in.o
 .debug_info    0x000087ad     0x67ef library/liboem/sun50iw10p1/libar100s.a(obj-in.o)

.debug_abbrev   0x00000000     0x3620
 .debug_abbrev  0x00000000     0x1114 driver/obj-in.o
 .debug_abbrev  0x00001114      0x799 library/obj-in.o
 .debug_abbrev  0x000018ad      0x661 service/obj-in.o
 .debug_abbrev  0x00001f0e      0x792 system/obj-in.o
 .debug_abbrev  0x000026a0      0xf80 library/liboem/sun50iw10p1/libar100s.a(obj-in.o)

.debug_line     0x00000000     0xe92e
 .debug_line    0x00000000     0x3794 driver/obj-in.o
 .debug_line    0x00003794     0x1e1c library/obj-in.o
 .debug_line    0x000055b0     0x184f service/obj-in.o
 .debug_line    0x00006dff      0xe2f system/obj-in.o
 .debug_line    0x00007c2e     0x6d00 library/liboem/sun50iw10p1/libar100s.a(obj-in.o)

.debug_frame    0x00000000     0x1ca4
 .debug_frame   0x00000000      0xa80 driver/obj-in.o
 .debug_frame   0x00000a80      0x704 library/obj-in.o
 .debug_frame   0x00001184      0x208 service/obj-in.o
 .debug_frame   0x0000138c      0x240 system/obj-in.o
 .debug_frame   0x000015cc      0x6d8 library/liboem/sun50iw10p1/libar100s.a(obj-in.o)

.debug_str      0x00000000     0x4314
 .debug_str     0x00000000     0x17a7 driver/obj-in.o
                               0x3dba (size before relaxing)
 .debug_str     0x000017a7      0x6c7 library/obj-in.o
                                0xe66 (size before relaxing)
 .debug_str     0x00001e6e      0x7b5 service/obj-in.o
                                0xfb6 (size before relaxing)
 .debug_str     0x00002623      0x2ea system/obj-in.o
                                0xc4e (size before relaxing)
 .debug_str     0x0000290d     0x1a07 library/liboem/sun50iw10p1/libar100s.a(obj-in.o)
                               0x4c5a (size before relaxing)

.debug_loc      0x00000000     0xcc6d
 .debug_loc     0x00000000     0x2381 driver/obj-in.o
 .debug_loc     0x00002381     0x27f6 library/obj-in.o
 .debug_loc     0x00004b77      0xbf2 service/obj-in.o
 .debug_loc     0x00005769      0x92f system/obj-in.o
 .debug_loc     0x00006098     0x6bd5 library/liboem/sun50iw10p1/libar100s.a(obj-in.o)

.debug_pubtypes
                0x00000000     0x1c34
 .debug_pubtypes
                0x00000000      0x581 driver/obj-in.o
 .debug_pubtypes
                0x00000581      0x19e library/obj-in.o
 .debug_pubtypes
                0x0000071f      0x18e service/obj-in.o
 .debug_pubtypes
                0x000008ad      0x16f system/obj-in.o
 .debug_pubtypes
                0x00000a1c     0x1218 library/liboem/sun50iw10p1/libar100s.a(obj-in.o)

.debug_ranges   0x00000000      0x868
 .debug_ranges  0x00000000       0x60 driver/obj-in.o
 .debug_ranges  0x00000060       0x20 library/obj-in.o
 .debug_ranges  0x00000080      0x330 service/obj-in.o
 .debug_ranges  0x000003b0      0x130 system/obj-in.o
 .debug_ranges  0x000004e0      0x388 library/liboem/sun50iw10p1/libar100s.a(obj-in.o)
00004000 D arisc_para
00004000 D paras_start_addr
00004088 D paras_end_addr
000040f0 T intc_init
00004148 T intc_exit
00004170 T intc_enable_interrupt
00004220 T intc_disable_interrupt
000042b8 T intc_interrupt_is_enabled
0000432c T intc_get_current_interrupt
00004354 T intc_set_mask
00004418 T intc_set_group_config
0000451c T isr_default
0000454c T interrupt_init
000045a0 T interrupt_exit
000045bc T interrupt_enable
000045d4 T interrupt_disable
000045ec T interrupt_set_nmi_trigger
00004614 T interrupt_set_mask
0000462c T interrupt_set_group_config
00004644 T install_isr
00004674 T uninstall_isr
000046dc T interrupt_entry
0000471c T interrupt_query_pending
0000479c T interrupt_clear_pending
00004800 T interrupt_get_current_intno
00004818 T interrupt_get_enabled
00004830 T pin_init
00004838 T pin_exit
00004840 T pin_set_status
00004848 T pin_set_multi_sel
000048c0 T pin_set_pull
00004938 T pin_set_drive
000049b0 T pin_write_data
00004a1c T pin_read_data
00004a5c T is_wanted_gpio_int
00004a90 T pin_set_int_trigger_mode
00004b1c T timer_hosc_onoff_cb
00004c6c T timer_isr
00004d28 T timer_init
00004e2c T timer_exit
00004e84 T timer_request
00004f68 T timer_release
00004f90 T timer_start
00005064 T timer_stop
0000510c T time_mdelay
000051c4 T cnt64_udelay
00005244 T time_udelay
000052dc t delay_loop
000052dc T time_cdelay
000052f4 T uart_init
000053f8 T uart_exit
00005470 T uart_putc
000054d4 T uart_get
0000553c T uart_puts
000055c0 T uart_set_baudrate
000056f4 T uart_clkchangecb
00005798 T uart_get_baudrate
000057ac t twi_clear_irq_flag
000057e0 t twic_reset
00005808 t twi_start
00005838 t twic_send_dummy_clock
000058c0 t twic_set_sclk.clone.0
00005984 T twi_clkchangecb
000059f0 T twi_init
00005b08 T twi_exit
00005b10 T twi_byte_rw
000061b8 T twi_read
00006248 T twi_write
000062d8 T is_twi_lock
000062f0 T twi_send_clk_9pulse
000063d8 T twi_get_status
0000641c T twi_standby_init
00006524 T twi_standby_exit
0000652c t hwmsgbox_set_receiver
00006598 t hwmsgbox_set_transmitter
00006608 T hwmsgbox_init
000066c8 T hwmsgbox_exit
000066f8 T hwmsgbox_wait_queue_not_full
00006758 T hwmsgbox_wait_queue_not_empty
000067c0 T hwmsgbox_send_message
00006a3c T hwmsgbox_feedback_message
00006b5c T hwmsgbox_query_message
00006d28 T hwmsgbox_super_standby_init
00006d54 T hwmsgbox_super_standby_exit
00006d88 t aw1657_pmu_set_voltage_state
00006e5c t aw1657_pmu_reset
00006ee0 t aw1657_pmu_shutdown
00006f68 T watchdog_reset
00006fd0 T pmu_shutdown
00007068 T pmu_reset
00007108 T pmu_charging_reset
0000718c T pmu_set_voltage
000071b4 T pmu_get_voltage
000071dc T pmu_set_voltage_state
0000723c T pmu_get_voltage_state
00007264 T pmu_query_event
0000726c T pmu_clear_pendings
00007274 T pmu_chip_init
0000727c T pmu_reg_write
00007298 T pmu_reg_read
000072b4 T pmu_reg_write_para
000072e4 T pmu_reg_read_para
00007314 T nmi_int_handler
00007354 T pmu_init
00007394 T pmu_exit
0000739c T is_pmu_exist
000073ac T pmu_standby_init
000073dc T pmu_standby_exit
0000740c T watchdog_init
00007488 T watchdog_exit
000074b0 T watchdog_enable
000074f0 T watchdog_disable
0000752c T itoa
0000765c T utoa
0000774c T hexdump
000077f4 T hstr2int
0000789c T dstr2int
000078e4 T strlen
00007904 T strnlen
00007934 T strcpy
0000795c T strncat
000079d4 T strcmp
00007a1c T strchr
00007a50 T memcpy
00007b0c T memmove
00007b98 T memcmp
00007bd4 T memchr
00007c14 T memset
00007c3c T sprintf
00007d58 T fdt_check_header
00007e6c T fdt_offset_ptr
00007f38 T fdt_next_tag
000080b4 T _fdt_check_node_offset
0000810c T _fdt_check_prop_offset
00008164 T fdt_next_node
00008274 T fdt_first_subnode
000082bc T fdt_next_subnode
0000832c T _fdt_find_string
000083b4 T fdt_move
00008480 t fdt64_to_cpu
000084e4 t _fdt_offset_ptr
0000851c t _fdt_mem_rsv
00008558 t _nextprop
000085e0 T fdt_string
00008618 T fdt_get_mem_rsv
000086c0 T fdt_num_mem_rsv
00008720 T fdt_subnode_offset_namelen
00008850 T fdt_subnode_offset
000088a0 T fdt_get_name
00008948 T fdt_first_property_offset
0000898c T fdt_next_property_offset
000089d0 T fdt_get_property_by_offset
00008a74 T fdt_get_property_namelen
00008ba0 T fdt_get_property
00008c00 T fdt_getprop_namelen
00008c2c T fdt_getprop_by_offset
00008cb8 T fdt_getprop
00008d18 T fdt_getprop_u32
00008ddc T fdt_get_phandle
00008e90 T fdt_get_alias_namelen
00008f0c T fdt_path_offset
0000904c T fdt_get_alias
0000908c T fdt_get_path
00009258 T fdt_supernode_atdepth_offset
00009360 T fdt_node_depth
000093a4 T fdt_parent_offset
00009400 T fdt_node_offset_by_prop_value
000094dc T fdt_node_offset_by_phandle
00009578 T fdt_stringlist_contains
00009628 T fdt_stringlist_count
000096b4 T fdt_stringlist_search
00009790 T fdt_stringlist_get
00009880 T fdt_node_check_compatible
000098e0 T fdt_node_offset_by_compatible
00009978 T fdt_strerror
000099e8 T fdt_address_cells
00009a6c T fdt_size_cells
00009aec T notifier_init
00009b30 T notifier_exit
00009b38 T notifier_insert
00009c04 T notifier_delete
00009c9c T notifier_notify
00009cf8 T message_valid
00009d08 T message_manager_init
00009d10 T message_manager_exit
00009d18 T message_coming_notify
00009ebc t print_align
00009f3c T debugger_init
00009f58 T debugger_exit
00009f60 T debugger_putc
00009f84 T debugger_get
00009f9c T debugger_puts
00009fb8 T debugger_printf
0000a304 T set_debug_level
0000a358 T daemon_register_service
0000a378 T startup_entry
0000a6cc T arisc_para_init
0000a6e8 T set_paras
0000a6f0 T standby_init
0000a730 T standby_exit
0000a738 T long_jump
0000a754 T standby_set_dram_crc_paras
0000a780 T standby_dram_crc_enable
0000a790 T standby_dram_crc
0000a7d4 t CPUX_IRQ_MAPTO_CPUS
0000a834 t CPUX_IRQ_MAPTO_CPUS_GRP
0000a84c t wakeup_timer_handler
0000a868 t group_irq_exit
0000a89c t group_irq_init
0000a8d0 T default_wakeup_handler
0000a95c T wakeup_timer_init
0000a9a8 T wakeup_timer_start
0000a9e4 T wakeup_timer_stop
0000aa00 T set_wakeup_src
0000ab3c T clear_wakeup_src
0000ac18 T is_suspend_lock
0000ac28 T cpu_op
0000bb78 T sys_op
0000bcb4 T icache_coherent
0000bcd8 t invalidate_block
0000bd04 t cpu_stack_monitor
0000bd70 T cpu_init
0000bda4 T cpu_disable_int
0000bdcc T cpu_enable_int
0000bddc T exit
0000bdfc T cpu_enter_doze
0000be10 t reset_handler
0000becc t invalid_block
0000bf3c t bus_error_exception_handler
0000bf60 t data_page_fault_exception_handler
0000bf84 t insn_page_fault_exception_handler
0000bfa8 t timer_exception_handler
0000bfcc t aligment_exception_handler
0000bff0 t illegal_exception_handler
0000c014 t irq_exception_handler
0000c038 t dtlb_miss_exception_handler
0000c05c t itlb_miss_exception_handler
0000c080 t range_exception_handler
0000c0a4 t syscall_exception_handler
0000c0c8 t fpu_exception_handler
0000c0ec t trap_exception_handler
0000c110 t cpu_exception_handler_entry
0000c208 T __udivsi3
0000c304 T __divsi3
0000c368 T __umodsi3
0000c388 T __modsi3
0000c3e4 T cpu_exception_handler_entry_c
0000c4a0 t timer_tick_server
0000c558 T start_softtimer
0000c56c T stop_softtimer
0000c58c T add_softtimer
0000c5f0 T current_time_tick
0000c604 T msec_to_ticks
0000c638 T time_ticks_init
0000c6a0 t cpu_power_switch_set
0000c7fc T is_old_cpureg_layout
0000c840 T cpucfg_init
0000c87c T cpucfg_exit
0000c8a4 T cpucfg_set_little_endian_address
0000c95c T cpucfg_remove_little_endian_address
0000ca5c T cpucfg_set_cpu_reset_state
0000caac T cpucfg_set_cpu_reset_state_ext
0000cb04 T cpucfg_counter_clear
0000cb34 T cpucfg_counter_read
0000cb88 T cpucfg_counter_ctrl
0000cba0 T cpucfg_set_cpux_jump_addr
0000cbb8 T cpucfg_acinactm_process
0000cc04 T cpucfg_wait_l2_enter_wfi
0000cc28 T cpucfg_l1l2_reset_by_hardware
0000cc74 T cpucfg_l1l2_reset_by_hardware_ext
0000cd10 T cpucfg_cluster0_process
0000cd84 T cpucfg_cluster0_process_ext
0000ce78 T cpucfg_cpu_suspend
0000cfec T cpucfg_cpu_suspend_late
0000d0fc T cpucfg_cpu_resume
0000d17c T set_secondary_entry
0000d1bc T sun50i_set_AA32nAA64
0000d27c T cpucfg_cpu_resume_early
0000d3f0 T cpu_power_up
0000d5e0 T cpu_power_down
0000d768 t auto_cal_timing_standby
0000d7b8 t phy_write_leveling_standby
0000d9f0 t phy_read_calibration_standby
0000dbec t phy_read_training_standby
0000e090 t phy_write_training_standby
0000e4cc t mctl_com_set_controller_refresh_standby.clone.1
0000e4fc t dramc_data_cal_standby.clone.12
0000e534 T mctl_phy_dx0_bit_delay_compensation_standby
0000e65c t mctl_core_init_standby
00011454 T dram_power_save_process
000115cc T dram_power_up_process
00011850 T iosc_freq_init
000119c8 T ccu_init
00011a84 T ccu_exit
00011a8c T save_state_flag
00011aa0 T read_state_flag
00011ab4 T ccu_set_mclk_onoff
00011bfc T ccu_set_poweroff_gating_state
00011dc0 T ccu_set_poweroff_gating_state_ext
00011f10 T ccu_24mhosc_reg_cb
00011f30 T ccu_24mhosc_disable
00011fd4 T ccu_24mhosc_enable
000120ac T is_hosc_lock
000120bc T ccu_set_mclk_reset
00012390 T ccu_reset_module
000123c8 T ccu_get_sclk_freq
00012488 T ccu_set_sclk_onoff
00012534 A rodata_vma
000130d4 r digit_string
0001310c r fdt_errtable
00013140 r __func__.2388
00013154 r irq_table
0001318c r __func__.2375
0001319c r remap_lpddr4_T509.2522
000131b8 r remap_lpddr4_A100.2521
000131d4 r remap_lpddr3_A100.2520
000131f0 r remap_ddr4_A100.2519
0001320c r remap_ddr3_T509.2518
00013228 r remap_ddr3_A100.2517
00013244 r CSWTCH.15
0001325c r CSWTCH.20
00013274 r CSWTCH.21
000132f4 A data_vma
000132f4 A shbss_vma
000132f4 D timer_lock
000132f8 d timers
00013330 D uart_lock
00013334 D aw1657_onoff_reg_bitmap
000133bc D pmu_axp806_ops
000133cc D axp_power_max
000133d0 D dram_crc_src
000133d4 D dram_crc_len
000133d8 d standby_osc24m_on
000133dc D debug_level
000133e0 D print_timeflg
000133e4 D exception_strings
00013424 D soc_version_a
00013428 D iosc_freq
0001342c D losc_freq
00013430 B bss_start_addr
00013430 B uart_pin_not_used
00013434 b uart_rate
00013438 B twi_lock
0001343c b hwmsg_suspend
00013440 b pmu_exist
00013444 B dram_crc_enable
00013448 b wakeup_timer
0001345c b cpus_src
00013460 b standby_type
00013464 b result
00013468 b standby_vdd_cpu
0001346c b standby_vdd_sys
00013470 b standby_vcc_pll
00013474 b dts_has_parsed.3130
00013478 b suspend_lock
0001347c b smc_region_save
000134dc b pll_periph0
000134e0 b mbus
000134e4 b pll_cpux_ctrl_reg_bak
000134e8 b c0_cpux_axi_cfg_reg_bak
000134ec b notifiers
0001354c b daemon_list
00013550 b msg_paras.2300
000135d0 b htimer
000135d4 b time_ticks
000135d8 b softtimer
000135e0 b softtimer_cnt
000135e4 b data_cal_standby
000135e8 b training_error_flag_standby
000135ec b already_init_osc_freq
000135f0 B hosc_notifier_list
000135f4 b hosc_lock
000135f8 b pll_ldo_suspend
000135fc B pintc_regs
00013600 B pwatchdog_regs
00013604 B isr_table
0001372c B delay_timer
00013730 B ptimerc_regs
00013734 B wakeup_source
00013738 B before_crc
0001373c B after_crc
00013740 B debugger_buffer
000137c0 B little_endian_used
000137c4 B ccu_pll_periph1_reg_addr
000137c8 B ccu_pll_ddr0_reg_addr
000137cc B apbs2_notifier_head
000137d0 B ccu_pll_periph0_reg_addr
000137d4 B ccu_pll_c0_cpux_reg_addr
000137d8 B ccu_reg_addr
000137e0 B bss_end_addr
000137e0 B stack_limit_addr
00013bdc b _stack
00013be0 B stack_base_addr

scp.elf:     file format elf32-or32
scp.elf
architecture: or32, flags 0x00000112:
EXEC_P, HAS_SYMS, D_PAGED
start address 0x00000100

Program Header:
    LOAD off    0x00002000 vaddr 0x00000000 paddr 0x00000000 align 2**13
         filesz 0x00000e08 memsz 0x00000e08 flags r-x
    LOAD off    0x00004000 vaddr 0x00004000 paddr 0x00004000 align 2**13
         filesz 0x00000088 memsz 0x00000088 flags rw-
    LOAD off    0x000040f0 vaddr 0x000040f0 paddr 0x000040f0 align 2**13
         filesz 0x0000f340 memsz 0x0000faec flags rwx
    LOAD off    0x00014000 vaddr 0x48100000 paddr 0x00014000 align 2**13
         filesz 0x00000004 memsz 0x00000004 flags rw-

Sections:
Idx Name          Size      VMA       LMA       File off  Algn
  0 .vectors      00000e08  00000000  00000000  00002000  2**0
                  CONTENTS, ALLOC, LOAD, READONLY, CODE
  1 dts_paras     00000088  00004000  00004000  00004000  2**2
                  CONTENTS, ALLOC, LOAD, DATA
  2 .text         0000e444  000040f0  000040f0  000040f0  2**2
                  CONTENTS, ALLOC, LOAD, READONLY, CODE
  3 .rodata       00000dc0  00012534  00012534  00012534  2**2
                  CONTENTS, ALLOC, LOAD, READONLY, DATA
  4 .data         0000013c  000132f4  000132f4  000132f4  2**2
                  CONTENTS, ALLOC, LOAD, DATA
  5 .bss          000003ac  00013430  00013430  00013430  2**2
                  ALLOC
  6 .stack        00000400  000137dc  000137dc  00013430  2**0
                  ALLOC
  7 .text5        00000004  48100000  00014000  00014000  2**0
                  CONTENTS, ALLOC, LOAD, DATA
  8 .comment      00000051  00000000  00000000  00014004  2**0
                  CONTENTS, READONLY
  9 .debug_aranges 000004a0  00000000  00000000  00014055  2**0
                  CONTENTS, READONLY, DEBUGGING
 10 .debug_pubnames 000019aa  00000000  00000000  000144f5  2**0
                  CONTENTS, READONLY, DEBUGGING
 11 .debug_info   0000ef9c  00000000  00000000  00015e9f  2**0
                  CONTENTS, READONLY, DEBUGGING
 12 .debug_abbrev 00003620  00000000  00000000  00024e3b  2**0
                  CONTENTS, READONLY, DEBUGGING
 13 .debug_line   0000e92e  00000000  00000000  0002845b  2**0
                  CONTENTS, READONLY, DEBUGGING
 14 .debug_frame  00001ca4  00000000  00000000  00036d8c  2**2
                  CONTENTS, READONLY, DEBUGGING
 15 .debug_str    00004314  00000000  00000000  00038a30  2**0
                  CONTENTS, READONLY, DEBUGGING
 16 .debug_loc    0000cc6d  00000000  00000000  0003cd44  2**0
                  CONTENTS, READONLY, DEBUGGING
 17 .debug_pubtypes 00001c34  00000000  00000000  000499b1  2**0
                  CONTENTS, READONLY, DEBUGGING
 18 .debug_ranges 00000868  00000000  00000000  0004b5e5  2**0
                  CONTENTS, READONLY, DEBUGGING
SYMBOL TABLE:
00000000 l    d  .vectors	00000000 .vectors
00004000 l    d  dts_paras	00000000 dts_paras
000040f0 l    d  .text	00000000 .text
00012534 l    d  .rodata	00000000 .rodata
000132f4 l    d  .data	00000000 .data
00013430 l    d  .bss	00000000 .bss
000137dc l    d  .stack	00000000 .stack
48100000 l    d  .text5	00000000 .text5
00000000 l    d  .comment	00000000 .comment
00000000 l    d  .debug_aranges	00000000 .debug_aranges
00000000 l    d  .debug_pubnames	00000000 .debug_pubnames
00000000 l    d  .debug_info	00000000 .debug_info
00000000 l    d  .debug_abbrev	00000000 .debug_abbrev
00000000 l    d  .debug_line	00000000 .debug_line
00000000 l    d  .debug_frame	00000000 .debug_frame
00000000 l    d  .debug_str	00000000 .debug_str
00000000 l    d  .debug_loc	00000000 .debug_loc
00000000 l    d  .debug_pubtypes	00000000 .debug_pubtypes
00000000 l    d  .debug_ranges	00000000 .debug_ranges
00013bdc l       .stack	00000000 _stack
0000be10 l       .text	00000000 reset_handler
0000bf3c l       .text	00000000 bus_error_exception_handler
0000bf60 l       .text	00000000 data_page_fault_exception_handler
0000bf84 l       .text	00000000 insn_page_fault_exception_handler
0000bfa8 l       .text	00000000 timer_exception_handler
0000bfcc l       .text	00000000 aligment_exception_handler
0000bff0 l       .text	00000000 illegal_exception_handler
0000c014 l       .text	00000000 irq_exception_handler
0000c038 l       .text	00000000 dtlb_miss_exception_handler
0000c05c l       .text	00000000 itlb_miss_exception_handler
0000c080 l       .text	00000000 range_exception_handler
0000c0a4 l       .text	00000000 syscall_exception_handler
0000c0c8 l       .text	00000000 fpu_exception_handler
0000c0ec l       .text	00000000 trap_exception_handler
0000becc l       .text	00000000 invalid_block
0000c110 l       .text	00000000 cpu_exception_handler_entry
0000bcd8 l       .text	00000000 invalidate_block
00000000 l    df *ABS*	00000000 cpu_c.c
0000bd04 l     F .text	0000006c cpu_stack_monitor
00000000 l    df *ABS*	00000000 exception.c
00000000 l    df *ABS*	00000000 time_ticks.c
0000c4a0 l     F .text	000000b8 timer_tick_server
000135d4 l     O .bss	00000004 time_ticks
000135d8 l     O .bss	00000008 softtimer
000135e0 l     O .bss	00000004 softtimer_cnt
000135d0 l     O .bss	00000004 htimer
00000000 l    df *ABS*	00000000 cpucfg.c
0000c6a0 l     F .text	0000015c cpu_power_switch_set
00000000 l    df *ABS*	00000000 mctl_standby-sun50iw10.c
0000d768 l     F .text	00000050 auto_cal_timing_standby
0000d7b8 l     F .text	00000238 phy_write_leveling_standby
0000d9f0 l     F .text	000001fc phy_read_calibration_standby
0000dbec l     F .text	000004a4 phy_read_training_standby
0000e090 l     F .text	0000043c phy_write_training_standby
0000e4cc l     F .text	00000030 mctl_com_set_controller_refresh_standby.clone.1
0000e4fc l     F .text	00000038 dramc_data_cal_standby.clone.12
0000e65c l     F .text	00002df8 mctl_core_init_standby
00013244 l     O .rodata	00000018 CSWTCH.15
0001325c l     O .rodata	00000018 CSWTCH.20
00013274 l     O .rodata	00000018 CSWTCH.21
0001319c l     O .rodata	0000001b remap_lpddr4_T509.2522
0001320c l     O .rodata	0000001b remap_ddr3_T509.2518
00013228 l     O .rodata	0000001b remap_ddr3_A100.2517
000131b8 l     O .rodata	0000001b remap_lpddr4_A100.2521
000131f0 l     O .rodata	0000001b remap_ddr4_A100.2519
000131d4 l     O .rodata	0000001b remap_lpddr3_A100.2520
000135e8 l     O .bss	00000004 training_error_flag_standby
000135e4 l     O .bss	00000004 data_cal_standby
00000000 l    df *ABS*	00000000 ccu.c
000135ec l     O .bss	00000004 already_init_osc_freq
00000000 l    df *ABS*	00000000 mclk.c
00000000 l    df *ABS*	00000000 power.c
000135f4 l     O .bss	00000004 hosc_lock
000135f8 l     O .bss	00000004 pll_ldo_suspend
00000000 l    df *ABS*	00000000 reset.c
00000000 l    df *ABS*	00000000 sclk.c
00000000 l    df *ABS*	00000000 notifier.c
000134ec l     O .bss	00000060 notifiers
00000000 l    df *ABS*	00000000 message_manager.c
00000000 l    df *ABS*	00000000 debugger.c
00009ebc l     F .text	00000080 print_align
00000000 l    df *ABS*	00000000 daemon.c
0001354c l     O .bss	00000004 daemon_list
00013550 l     O .bss	00000080 msg_paras.2300
00000000 l    df *ABS*	00000000 para.c
00000000 l    df *ABS*	00000000 intc.c
00000000 l    df *ABS*	00000000 intc_manager.c
00000000 l    df *ABS*	00000000 pin.c
00000000 l    df *ABS*	00000000 pin_int.c
00000000 l    df *ABS*	00000000 timer.c
000132f8 l     O .data	00000038 timers
00000000 l    df *ABS*	00000000 timer_delay.c
000052dc l       .text	00000000 delay_loop
00000000 l    df *ABS*	00000000 uart.c
00013434 l     O .bss	00000004 uart_rate
00000000 l    df *ABS*	00000000 twi.c
000057ac l     F .text	00000034 twi_clear_irq_flag
000057e0 l     F .text	00000028 twic_reset
00005808 l     F .text	00000030 twi_start
00005838 l     F .text	00000088 twic_send_dummy_clock
000058c0 l     F .text	000000c4 twic_set_sclk.clone.0
00000000 l    df *ABS*	00000000 hwmsgbox.c
0000652c l     F .text	0000006c hwmsgbox_set_receiver
00006598 l     F .text	00000070 hwmsgbox_set_transmitter
0001343c l     O .bss	00000004 hwmsg_suspend
00000000 l    df *ABS*	00000000 pmu_axp806.c
00006d88 l     F .text	000000d4 aw1657_pmu_set_voltage_state
00006e5c l     F .text	00000084 aw1657_pmu_reset
00006ee0 l     F .text	00000088 aw1657_pmu_shutdown
00000000 l    df *ABS*	00000000 pmu.c
00013440 l     O .bss	00000004 pmu_exist
00000000 l    df *ABS*	00000000 watchdog.c
00000000 l    df *ABS*	00000000 library.c
000130d4 l     O .rodata	00000011 digit_string
00000000 l    df *ABS*	00000000 string.c
00000000 l    df *ABS*	00000000 fdt.c
00000000 l    df *ABS*	00000000 fdt_ro.c
00008480 l     F .text	00000064 fdt64_to_cpu
000084e4 l     F .text	00000038 _fdt_offset_ptr
0000851c l     F .text	0000003c _fdt_mem_rsv
00008558 l     F .text	00000088 _nextprop
00000000 l    df *ABS*	00000000 fdt_strerror.c
0001310c l     O .rodata	00000034 fdt_errtable
00000000 l    df *ABS*	00000000 fdt_addresses.c
00000000 l    df *ABS*	00000000 standby.c
00000000 l    df *ABS*	00000000 standby_dram_crc.c
00000000 l    df *ABS*	00000000 wakeup_source.c
0000a7d4 l     F .text	00000060 CPUX_IRQ_MAPTO_CPUS
00013154 l     O .rodata	00000038 irq_table
0000a834 l     F .text	00000018 CPUX_IRQ_MAPTO_CPUS_GRP
0000a84c l     F .text	0000001c wakeup_timer_handler
0000a868 l     F .text	00000034 group_irq_exit
0000a89c l     F .text	00000034 group_irq_init
00013448 l     O .bss	00000014 wakeup_timer
0001318c l     O .rodata	0000000f __func__.2375
00013140 l     O .rodata	00000011 __func__.2388
00000000 l    df *ABS*	00000000 plat_standby.c
00013478 l     O .bss	00000004 suspend_lock
00013474 l     O .bss	00000004 dts_has_parsed.3130
00013468 l     O .bss	00000004 standby_vdd_cpu
0001346c l     O .bss	00000004 standby_vdd_sys
00013470 l     O .bss	00000004 standby_vcc_pll
000133d8 l     O .data	00000004 standby_osc24m_on
0001345c l     O .bss	00000004 cpus_src
00013460 l     O .bss	00000004 standby_type
0001347c l     O .bss	00000060 smc_region_save
000134dc l     O .bss	00000004 pll_periph0
000134e0 l     O .bss	00000004 mbus
000134e4 l     O .bss	00000004 pll_cpux_ctrl_reg_bak
000134e8 l     O .bss	00000004 c0_cpux_axi_cfg_reg_bak
00013464 l     O .bss	00000004 result
0000cba0 g     F .text	00000018 cpucfg_set_cpux_jump_addr
000137c0 g     O .bss	00000004 little_endian_used
000123c8 g     F .text	000000c0 ccu_get_sclk_freq
000099e8 g     F .text	00000084 fdt_address_cells
0000ce78 g     F .text	00000174 cpucfg_cpu_suspend
00007934 g     F .text	00000028 strcpy
00013330 g     O .data	00000004 uart_lock
00007e6c g     F .text	000000cc fdt_offset_ptr
00005984 g     F .text	0000006c twi_clkchangecb
00007298 g     F .text	0000001c pmu_reg_read
00004148 g     F .text	00000028 intc_exit
00007314 g     F .text	00000040 nmi_int_handler
00009d08 g     F .text	00000008 message_manager_init
00013734 g     O .bss	00000004 wakeup_source
00004088 g       dts_paras	00000000 paras_end_addr
0000c604 g     F .text	00000034 msec_to_ticks
0000bcb4 g       .text	00000000 icache_coherent
000054d4 g     F .text	00000068 uart_get
000120ac g     F .text	00000010 is_hosc_lock
00006d28 g     F .text	0000002c hwmsgbox_super_standby_init
0001342c g     O .data	00000004 losc_freq
0000a790 g     F .text	00000044 standby_dram_crc
00013be0 g       .stack	00000000 stack_base_addr
00004830 g     F .text	00000008 pin_init
00008c00 g     F .text	0000002c fdt_getprop_namelen
00011a84 g     F .text	00000008 ccu_exit
00008948 g     F .text	00000044 fdt_first_property_offset
000133dc g     O .data	00000004 debug_level
00009790 g     F .text	000000f0 fdt_stringlist_get
00013428 g     O .data	00000004 iosc_freq
00006f68 g     F .text	00000068 watchdog_reset
00007b0c g     F .text	0000008c memmove
000093a4 g     F .text	0000005c fdt_parent_offset
0000a9a8 g     F .text	0000003c wakeup_timer_start
0000c638 g     F .text	00000068 time_ticks_init
0000bd70 g     F .text	00000034 cpu_init
00008ba0 g     F .text	00000060 fdt_get_property
00009f9c g     F .text	0000001c debugger_puts
00008f0c g     F .text	00000140 fdt_path_offset
00013444 g     O .bss	00000004 dram_crc_enable
000133d4 g     O .data	00000004 dram_crc_len
000067c0 g     F .text	0000027c hwmsgbox_send_message
0000726c g     F .text	00000008 pmu_clear_pendings
0000aa00 g     F .text	0000013c set_wakeup_src
0000727c g     F .text	0000001c pmu_reg_write
00009d18 g     F .text	000001a4 message_coming_notify
00004674 g     F .text	00000068 uninstall_isr
00006608 g     F .text	000000c0 hwmsgbox_init
000048c0 g     F .text	00000078 pin_set_pull
0000bdfc g     F .text	00000014 cpu_enter_doze
0000cfec g     F .text	00000110 cpucfg_cpu_suspend_late
000083b4 g     F .text	000000cc fdt_move
0000774c g     F .text	000000a8 hexdump
00009f58 g     F .text	00000008 debugger_exit
0000c3e4 g     F .text	000000bc cpu_exception_handler_entry_c
000133cc g     O .data	00000004 axp_power_max
000045d4 g     F .text	00000018 interrupt_disable
000135fc g     O .bss	00000004 pintc_regs
000098e0 g     F .text	00000098 fdt_node_offset_by_compatible
0000a358 g     F .text	00000020 daemon_register_service
00005b08 g     F .text	00000008 twi_exit
000137c4 g     O .bss	00000004 ccu_pll_periph1_reg_addr
00007a50 g     F .text	000000bc memcpy
000115cc g     F .text	00000284 dram_power_up_process
000133e4 g     O .data	00000040 exception_strings
00009400 g     F .text	000000dc fdt_node_offset_by_prop_value
00006524 g     F .text	00000008 twi_standby_exit
000066f8 g     F .text	00000060 hwmsgbox_wait_queue_not_full
000132f4 g       *ABS*	00000000 shbss_vma
000049b0 g     F .text	0000006c pin_write_data
00009f60 g     F .text	00000024 debugger_putc
0000c208 g       .text	00000000 __udivsi3
00011fd4 g     F .text	000000d8 ccu_24mhosc_enable
00013738 g     O .bss	00000004 before_crc
0000454c g     F .text	00000054 interrupt_init
0000c58c g     F .text	00000064 add_softtimer
000059f0 g     F .text	00000118 twi_init
0000752c g     F .text	00000130 itoa
00008720 g     F .text	00000130 fdt_subnode_offset_namelen
0000ac18 g     F .text	00000010 is_suspend_lock
00009360 g     F .text	00000044 fdt_node_depth
000072e4 g     F .text	00000030 pmu_reg_read_para
000045a0 g     F .text	0000001c interrupt_exit
00004818 g     F .text	00000018 interrupt_get_enabled
000086c0 g     F .text	00000060 fdt_num_mem_rsv
00007264 g     F .text	00000008 pmu_query_event
000089d0 g     F .text	000000a4 fdt_get_property_by_offset
0001373c g     O .bss	00000004 after_crc
00007394 g     F .text	00000008 pmu_exit
00006b5c g     F .text	000001cc hwmsgbox_query_message
0000d0fc g     F .text	00000080 cpucfg_cpu_resume
00013600 g     O .bss	00000004 pwatchdog_regs
00013740 g     O .bss	00000080 debugger_buffer
0000a754 g     F .text	0000002c standby_set_dram_crc_paras
000137c8 g     O .bss	00000004 ccu_pll_ddr0_reg_addr
0000641c g     F .text	00000108 twi_standby_init
00011454 g     F .text	00000178 dram_power_save_process
000071dc g     F .text	00000060 pmu_set_voltage_state
000119c8 g     F .text	000000bc ccu_init
00009c04 g     F .text	00000098 notifier_delete
0000832c g     F .text	00000088 _fdt_find_string
00004b1c g     F .text	00000150 timer_hosc_onoff_cb
00013430 g     O .bss	00000004 uart_pin_not_used
0000718c g     F .text	00000028 pmu_set_voltage
00004848 g     F .text	00000078 pin_set_multi_sel
0000d3f0 g     F .text	000001f0 cpu_power_up
0000c7fc g     F .text	00000044 is_old_cpureg_layout
0000c95c g     F .text	00000100 cpucfg_remove_little_endian_address
00007904 g     F .text	00000030 strnlen
00004e84 g     F .text	000000e4 timer_request
000045ec g     F .text	00000028 interrupt_set_nmi_trigger
00008cb8 g     F .text	00000060 fdt_getprop
0000432c g     F .text	00000028 intc_get_current_interrupt
000135f0 g     O .bss	00000004 hosc_notifier_list
0000739c g     F .text	00000010 is_pmu_exist
0000c87c g     F .text	00000028 cpucfg_exit
0000553c g     F .text	00000084 uart_puts
00004a5c g     F .text	00000034 is_wanted_gpio_int
0000765c g     F .text	000000f0 utoa
00008d18 g     F .text	000000c4 fdt_getprop_u32
00009978 g     F .text	00000070 fdt_strerror
00004d28 g     F .text	00000104 timer_init
00009578 g     F .text	000000b0 fdt_stringlist_contains
0000c5f0 g     F .text	00000014 current_time_tick
000132f4 g       *ABS*	00000000 data_vma
00004220 g     F .text	00000098 intc_disable_interrupt
00006248 g     F .text	00000090 twi_write
00011850 g     F .text	00000178 iosc_freq_init
00004644 g     F .text	00000030 install_isr
000137e0 g       .stack	00000000 stack_limit_addr
000062f0 g     F .text	000000e8 twi_send_clk_9pulse
0000c368 g       .text	00000000 __umodsi3
0000810c g     F .text	00000058 _fdt_check_prop_offset
00004f90 g     F .text	000000d4 timer_start
00007068 g     F .text	000000a0 pmu_reset
00004840 g     F .text	00000008 pin_set_status
00011aa0 g     F .text	00000014 read_state_flag
00008850 g     F .text	00000050 fdt_subnode_offset
0000cb04 g     F .text	00000030 cpucfg_counter_clear
0000a780 g     F .text	00000010 standby_dram_crc_enable
000052f4 g     F .text	00000104 uart_init
000062d8 g     F .text	00000018 is_twi_lock
00007bd4 g     F .text	00000040 memchr
0000cd84 g     F .text	000000f4 cpucfg_cluster0_process_ext
00009a6c g     F .text	00000080 fdt_size_cells
0000451c g     F .text	00000030 isr_default
000055c0 g     F .text	00000134 uart_set_baudrate
0000a6f0 g     F .text	00000040 standby_init
00011f30 g     F .text	000000a4 ccu_24mhosc_disable
00009258 g     F .text	00000108 fdt_supernode_atdepth_offset
00013438 g     O .bss	00000001 twi_lock
00004354 g     F .text	000000c4 intc_set_mask
0000d1bc g     F .text	000000c0 sun50i_set_AA32nAA64
00009d10 g     F .text	00000008 message_manager_exit
000082bc g     F .text	00000070 fdt_next_subnode
000046dc g     F .text	00000040 interrupt_entry
0000c558 g     F .text	00000014 start_softtimer
0000c8a4 g     F .text	000000b8 cpucfg_set_little_endian_address
0000ac28 g     F .text	00000f50 cpu_op
00009fb8 g     F .text	0000034c debugger_printf
0000cd10 g     F .text	00000074 cpucfg_cluster0_process
0000c56c g     F .text	00000020 stop_softtimer
00007274 g     F .text	00000008 pmu_chip_init
00004a1c g     F .text	00000040 pin_read_data
00006a3c g     F .text	00000120 hwmsgbox_feedback_message
000072b4 g     F .text	00000030 pmu_reg_write_para
0000bdcc g     F .text	00000010 cpu_enable_int
00006fd0 g     F .text	00000098 pmu_shutdown
00007b98 g     F .text	0000003c memcmp
0000898c g     F .text	00000044 fdt_next_property_offset
000133e0 g     O .data	00000004 print_timeflg
0000795c g     F .text	00000078 strncat
000073ac g     F .text	00000030 pmu_standby_init
00008a74 g     F .text	0000012c fdt_get_property_namelen
0000c840 g     F .text	0000003c cpucfg_init
000094dc g     F .text	0000009c fdt_node_offset_by_phandle
00013334 g     O .data	00000088 aw1657_onoff_reg_bitmap
000063d8 g     F .text	00000044 twi_get_status
00011f10 g     F .text	00000020 ccu_24mhosc_reg_cb
000073dc g     F .text	00000030 pmu_standby_exit
00007488 g     F .text	00000028 watchdog_exit
00012534 g       *ABS*	00000000 rodata_vma
00012390 g     F .text	00000038 ccu_reset_module
000120bc g     F .text	000002d4 ccu_set_mclk_reset
00013430 g       .bss	00000000 bss_start_addr
0000ab3c g     F .text	000000dc clear_wakeup_src
00004170 g     F .text	000000b0 intc_enable_interrupt
00007c14 g     F .text	00000028 memset
00004e2c g     F .text	00000058 timer_exit
0000cbb8 g     F .text	0000004c cpucfg_acinactm_process
0000cb88 g     F .text	00000018 cpucfg_counter_ctrl
00007108 g     F .text	00000084 pmu_charging_reset
0000789c g     F .text	00000048 dstr2int
000080b4 g     F .text	00000058 _fdt_check_node_offset
00005470 g     F .text	00000064 uart_putc
0000bda4 g     F .text	00000028 cpu_disable_int
000051c4 g     F .text	00000080 cnt64_udelay
0000a6e8 g     F .text	00000008 set_paras
00013604 g     O .bss	00000128 isr_table
000137cc g     O .bss	00000004 apbs2_notifier_head
0000904c g     F .text	00000040 fdt_get_alias
0000a304 g     F .text	00000054 set_debug_level
00013424 g     O .data	00000004 soc_version_a
000066c8 g     F .text	00000030 hwmsgbox_exit
0000c304 g       .text	00000000 __divsi3
0000d5e0 g     F .text	00000188 cpu_power_down
00008ddc g     F .text	000000b4 fdt_get_phandle
000079d4 g     F .text	00000048 strcmp
000056f4 g     F .text	000000a4 uart_clkchangecb
00009aec g     F .text	00000044 notifier_init
00012488 g     F .text	000000ac ccu_set_sclk_onoff
00004000 g       dts_paras	00000000 paras_start_addr
0000510c g     F .text	000000b8 time_mdelay
00007c3c g     F .text	0000011c sprintf
000061b8 g     F .text	00000090 twi_read
000077f4 g     F .text	000000a8 hstr2int
00004418 g     F .text	00000104 intc_set_group_config
0000cc28 g     F .text	0000004c cpucfg_l1l2_reset_by_hardware
00007d58 g     F .text	00000114 fdt_check_header
00011ab4 g     F .text	00000148 ccu_set_mclk_onoff
00005064 g     F .text	000000a8 timer_stop
000088a0 g     F .text	000000a8 fdt_get_name
00004614 g     F .text	00000018 interrupt_set_mask
00009c9c g     F .text	0000005c notifier_notify
00008274 g     F .text	00000048 fdt_first_subnode
000040f0 g     F .text	00000058 intc_init
0000d27c g     F .text	00000174 cpucfg_cpu_resume_early
0000723c g     F .text	00000028 pmu_get_voltage_state
0000471c g     F .text	00000080 interrupt_query_pending
00005798 g     F .text	00000014 uart_get_baudrate
00005244 g     F .text	00000098 time_udelay
00004f68 g     F .text	00000028 timer_release
00006758 g     F .text	00000068 hwmsgbox_wait_queue_not_empty
00008164 g     F .text	00000110 fdt_next_node
0000a738 g     F .text	0000001c long_jump
000137e0 g       .bss	00000000 bss_end_addr
0001372c g     O .bss	00000004 delay_timer
00006d54 g     F .text	00000034 hwmsgbox_super_standby_exit
000137d0 g     O .bss	00000004 ccu_pll_periph0_reg_addr
00004838 g     F .text	00000008 pin_exit
000071b4 g     F .text	00000028 pmu_get_voltage
00011bfc g     F .text	000001c4 ccu_set_poweroff_gating_state
0000cc74 g     F .text	0000009c cpucfg_l1l2_reset_by_hardware_ext
000074b0 g     F .text	00000040 watchdog_enable
00007354 g     F .text	00000040 pmu_init
0000e534 g     F .text	00000128 mctl_phy_dx0_bit_delay_compensation_standby
000132f4 g     O .data	00000004 timer_lock
0000479c g     F .text	00000064 interrupt_clear_pending
0000bddc g     F .text	00000020 exit
0000a6cc g     F .text	0000001c arisc_para_init
000085e0 g     F .text	00000038 fdt_string
0000cc04 g     F .text	00000024 cpucfg_wait_l2_enter_wfi
0000c388 g       .text	00000000 __modsi3
000137d4 g     O .bss	00000004 ccu_pll_c0_cpux_reg_addr
00011dc0 g     F .text	00000150 ccu_set_poweroff_gating_state_ext
00007f38 g     F .text	0000017c fdt_next_tag
00004000 g     O dts_paras	00000088 arisc_para
000133d0 g     O .data	00000004 dram_crc_src
00004938 g     F .text	00000078 pin_set_drive
00009f3c g     F .text	0000001c debugger_init
000074f0 g     F .text	0000003c watchdog_disable
0000a378 g     F .text	00000354 startup_entry
00008e90 g     F .text	0000007c fdt_get_alias_namelen
00004800 g     F .text	00000018 interrupt_get_current_intno
00004c6c g     F .text	000000bc timer_isr
00009cf8 g     F .text	00000010 message_valid
00005b10 g     F .text	000006a8 twi_byte_rw
00004a90 g     F .text	0000008c pin_set_int_trigger_mode
000052dc g       .text	00000000 time_cdelay
000045bc g     F .text	00000018 interrupt_enable
00009628 g     F .text	0000008c fdt_stringlist_count
000078e4 g     F .text	00000020 strlen
00013730 g     O .bss	00000004 ptimerc_regs
0000caac g     F .text	00000058 cpucfg_set_cpu_reset_state_ext
0000d17c g     F .text	00000040 set_secondary_entry
0000a9e4 g     F .text	0000001c wakeup_timer_stop
00011a8c g     F .text	00000014 save_state_flag
0000a730 g     F .text	00000008 standby_exit
0000ca5c g     F .text	00000050 cpucfg_set_cpu_reset_state
00007a1c g     F .text	00000034 strchr
0000a8d0 g     F .text	0000008c default_wakeup_handler
0000cb34 g     F .text	00000054 cpucfg_counter_read
000042b8 g     F .text	00000074 intc_interrupt_is_enabled
0000740c g     F .text	0000007c watchdog_init
00009f84 g     F .text	00000018 debugger_get
0000a95c g     F .text	0000004c wakeup_timer_init
000096b4 g     F .text	000000dc fdt_stringlist_search
00009880 g     F .text	00000060 fdt_node_check_compatible
0000462c g     F .text	00000018 interrupt_set_group_config
000053f8 g     F .text	00000078 uart_exit
00008c2c g     F .text	0000008c fdt_getprop_by_offset
0000bb78 g     F .text	0000013c sys_op
00009b30 g     F .text	00000008 notifier_exit
00008618 g     F .text	000000a8 fdt_get_mem_rsv
0000908c g     F .text	000001cc fdt_get_path
000137d8 g     O .bss	00000004 ccu_reg_addr
00009b38 g     F .text	000000cc notifier_insert
000133bc g     O .data	00000010 pmu_axp806_ops



Disassembly of section .vectors:

00000000 <.vectors>:
	...
 100:	00 00 2f 44 	l.j be10 <reset_handler>
 104:	15 00 00 00 	l.nop 0x0
	...
 200:	00 00 2f 4f 	l.j bf3c <bus_error_exception_handler>
 204:	15 00 00 00 	l.nop 0x0
	...
 300:	00 00 2f 18 	l.j bf60 <data_page_fault_exception_handler>
 304:	15 00 00 00 	l.nop 0x0
	...
 400:	00 00 2e e1 	l.j bf84 <insn_page_fault_exception_handler>
 404:	15 00 00 00 	l.nop 0x0
	...
 500:	00 00 2e aa 	l.j bfa8 <timer_exception_handler>
 504:	15 00 00 00 	l.nop 0x0
	...
 600:	00 00 2e 73 	l.j bfcc <aligment_exception_handler>
 604:	15 00 00 00 	l.nop 0x0
	...
 700:	00 00 2e 3c 	l.j bff0 <illegal_exception_handler>
 704:	15 00 00 00 	l.nop 0x0
	...
 800:	00 00 2e 05 	l.j c014 <irq_exception_handler>
 804:	15 00 00 00 	l.nop 0x0
	...
 900:	00 00 2d ce 	l.j c038 <dtlb_miss_exception_handler>
 904:	15 00 00 00 	l.nop 0x0
	...
 a00:	00 00 2d 97 	l.j c05c <itlb_miss_exception_handler>
 a04:	15 00 00 00 	l.nop 0x0
	...
 b00:	00 00 2d 60 	l.j c080 <range_exception_handler>
 b04:	15 00 00 00 	l.nop 0x0
	...
 c00:	00 00 2d 29 	l.j c0a4 <syscall_exception_handler>
 c04:	15 00 00 00 	l.nop 0x0
	...
 d00:	00 00 2c f2 	l.j c0c8 <fpu_exception_handler>
 d04:	15 00 00 00 	l.nop 0x0
	...
 e00:	00 00 2c bb 	l.j c0ec <trap_exception_handler>
 e04:	15 00 00 00 	l.nop 0x0

Disassembly of section .text:

000040f0 <intc_init>:
* Note       :
*********************************************************************************************************
*/
s32 intc_init(void)
{
	pintc_regs = (struct intc_regs *)(R_INTC_REG_BASE);
    40f0:	18 60 07 02 	l.movhi r3,0x702
    40f4:	18 80 00 01 	l.movhi r4,0x1
    40f8:	a8 63 10 00 	l.ori r3,r3,0x1000
    40fc:	a8 84 35 fc 	l.ori r4,r4,0x35fc
*
* Note       :
*********************************************************************************************************
*/
s32 intc_init(void)
{
    4100:	d7 e1 17 fc 	l.sw 0xfffffffc(r1),r2
	pintc_regs = (struct intc_regs *)(R_INTC_REG_BASE);

	/*initialize interrupt controller */
	pintc_regs->enable = 0x0;
    4104:	9c 40 00 00 	l.addi r2,r0,0x0
* Note       :
*********************************************************************************************************
*/
s32 intc_init(void)
{
	pintc_regs = (struct intc_regs *)(R_INTC_REG_BASE);
    4108:	d4 04 18 00 	l.sw 0x0(r4),r3

	/*initialize interrupt controller */
	pintc_regs->enable = 0x0;
    410c:	d4 03 10 40 	l.sw 0x40(r3),r2
	pintc_regs->mask = 0x0;
	pintc_regs->pending = 0xffffffff;
    4110:	9c 80 ff ff 	l.addi r4,r0,0xffffffff
{
	pintc_regs = (struct intc_regs *)(R_INTC_REG_BASE);

	/*initialize interrupt controller */
	pintc_regs->enable = 0x0;
	pintc_regs->mask = 0x0;
    4114:	d4 03 10 50 	l.sw 0x50(r3),r2
	pintc_regs->pending = 0xffffffff;
    4118:	d4 03 20 10 	l.sw 0x10(r3),r4

	pintc_regs->enable1 = 0x0;
    411c:	d4 03 10 44 	l.sw 0x44(r3),r2
	pintc_regs->mask1 = 0x0;
    4120:	d4 03 10 54 	l.sw 0x54(r3),r2
	pintc_regs->pending1 = 0xffffffff;
    4124:	d4 03 20 14 	l.sw 0x14(r3),r4

	pintc_regs->enable2 = 0x0;
    4128:	d4 03 10 48 	l.sw 0x48(r3),r2
	pintc_regs->mask2 = 0x0;
    412c:	d4 03 10 58 	l.sw 0x58(r3),r2
*
* Note       :
*********************************************************************************************************
*/
s32 intc_init(void)
{
    4130:	9c 21 ff fc 	l.addi r1,r1,0xfffffffc
	pintc_regs->mask1 = 0x0;
	pintc_regs->pending1 = 0xffffffff;

	pintc_regs->enable2 = 0x0;
	pintc_regs->mask2 = 0x0;
	pintc_regs->pending2 = 0xffffffff;
    4134:	d4 03 20 18 	l.sw 0x18(r3),r4
	return OK;
}
    4138:	9c 21 00 04 	l.addi r1,r1,0x4
    413c:	a9 62 00 00 	l.ori r11,r2,0x0
    4140:	44 00 48 00 	l.jr r9
    4144:	84 41 ff fc 	l.lwz r2,0xfffffffc(r1)

00004148 <intc_exit>:
* Note       :
*********************************************************************************************************
*/
s32 intc_exit(void)
{
	pintc_regs = NULL;
    4148:	18 60 00 01 	l.movhi r3,0x1
*
* Note       :
*********************************************************************************************************
*/
s32 intc_exit(void)
{
    414c:	d7 e1 17 fc 	l.sw 0xfffffffc(r1),r2
	pintc_regs = NULL;
    4150:	a8 63 35 fc 	l.ori r3,r3,0x35fc
    4154:	9c 40 00 00 	l.addi r2,r0,0x0
*
* Note       :
*********************************************************************************************************
*/
s32 intc_exit(void)
{
    4158:	9c 21 ff fc 	l.addi r1,r1,0xfffffffc
	pintc_regs = NULL;
    415c:	d4 03 10 00 	l.sw 0x0(r3),r2

	return OK;
}
    4160:	9c 21 00 04 	l.addi r1,r1,0x4
    4164:	a9 62 00 00 	l.ori r11,r2,0x0
    4168:	44 00 48 00 	l.jr r9
    416c:	84 41 ff fc 	l.lwz r2,0xfffffffc(r1)

00004170 <intc_enable_interrupt>:

	/*
	 * NMI interrupt should clear before enable.
	 * by sunny at 2012-6-12 19:30:22.
	 */
	if (intno == INTC_R_NMI_IRQ) {
    4170:	bc 23 00 00 	l.sfnei r3,0x0
    4174:	10 00 00 09 	l.bf 4198 <intc_enable_interrupt+0x28>
    4178:	bc 43 00 1f 	l.sfgtui r3,0x1f
		INF("clean NMI interrupt pending\n");
		pintc_regs->pending = (1 << intno);
    417c:	18 80 00 01 	l.movhi r4,0x1
    4180:	9c a0 00 01 	l.addi r5,r0,0x1
    4184:	a8 84 35 fc 	l.ori r4,r4,0x35fc
    4188:	84 84 00 00 	l.lwz r4,0x0(r4)
    418c:	d4 04 28 10 	l.sw 0x10(r4),r5
	}

	/*enable interrupt which number is intno */
	if (intno <= 31)
		pintc_regs->enable |= (1 << intno);
    4190:	00 00 00 05 	l.j 41a4 <intc_enable_interrupt+0x34>
    4194:	18 80 00 01 	l.movhi r4,0x1
		INF("clean NMI interrupt pending\n");
		pintc_regs->pending = (1 << intno);
	}

	/*enable interrupt which number is intno */
	if (intno <= 31)
    4198:	10 00 00 0c 	l.bf 41c8 <intc_enable_interrupt+0x58>
    419c:	9c a3 ff e0 	l.addi r5,r3,0xffffffe0
		pintc_regs->enable |= (1 << intno);
    41a0:	18 80 00 01 	l.movhi r4,0x1
    41a4:	9c c0 00 01 	l.addi r6,r0,0x1
    41a8:	a8 84 35 fc 	l.ori r4,r4,0x35fc
    41ac:	e0 66 18 08 	l.sll r3,r6,r3
    41b0:	84 84 00 00 	l.lwz r4,0x0(r4)
    41b4:	84 a4 00 40 	l.lwz r5,0x40(r4)
    41b8:	e0 63 28 04 	l.or r3,r3,r5
    41bc:	d4 04 18 40 	l.sw 0x40(r4),r3
		pintc_regs->enable2 |= (1 << (intno - 64));

	INF("intno:%d interrupt enable\n", intno);

	return OK;
}
    41c0:	00 00 00 16 	l.j 4218 <intc_enable_interrupt+0xa8>
    41c4:	9d 60 00 00 	l.addi r11,r0,0x0
    41c8:	18 80 00 01 	l.movhi r4,0x1
	}

	/*enable interrupt which number is intno */
	if (intno <= 31)
		pintc_regs->enable |= (1 << intno);
	else if (intno > 31 && intno <= 63)
    41cc:	bc 45 00 1f 	l.sfgtui r5,0x1f
    41d0:	10 00 00 0a 	l.bf 41f8 <intc_enable_interrupt+0x88>
    41d4:	a8 84 35 fc 	l.ori r4,r4,0x35fc
		pintc_regs->enable1 |= (1 << (intno - 32));
    41d8:	9c c0 00 01 	l.addi r6,r0,0x1
    41dc:	84 64 00 00 	l.lwz r3,0x0(r4)
    41e0:	e0 a6 28 08 	l.sll r5,r6,r5
    41e4:	84 83 00 44 	l.lwz r4,0x44(r3)
    41e8:	e0 a5 20 04 	l.or r5,r5,r4
    41ec:	d4 03 28 44 	l.sw 0x44(r3),r5
		pintc_regs->enable2 |= (1 << (intno - 64));

	INF("intno:%d interrupt enable\n", intno);

	return OK;
}
    41f0:	00 00 00 0a 	l.j 4218 <intc_enable_interrupt+0xa8>
    41f4:	9d 60 00 00 	l.addi r11,r0,0x0
	if (intno <= 31)
		pintc_regs->enable |= (1 << intno);
	else if (intno > 31 && intno <= 63)
		pintc_regs->enable1 |= (1 << (intno - 32));
	else
		pintc_regs->enable2 |= (1 << (intno - 64));
    41f8:	9c 63 ff c0 	l.addi r3,r3,0xffffffc0
    41fc:	9c c0 00 01 	l.addi r6,r0,0x1
    4200:	84 84 00 00 	l.lwz r4,0x0(r4)
    4204:	e0 66 18 08 	l.sll r3,r6,r3
    4208:	84 a4 00 48 	l.lwz r5,0x48(r4)
    420c:	e0 63 28 04 	l.or r3,r3,r5
    4210:	d4 04 18 48 	l.sw 0x48(r4),r3

	INF("intno:%d interrupt enable\n", intno);

	return OK;
}
    4214:	9d 60 00 00 	l.addi r11,r0,0x0
    4218:	44 00 48 00 	l.jr r9
    421c:	15 00 00 00 	l.nop 0x0

00004220 <intc_disable_interrupt>:
{
	/*intno can't beyond then IRQ_SOURCE_MAX */
	ASSERT(intno < IRQ_SOUCE_MAX);

	/*enable interrupt which number is intno */
	if (intno <= 31)
    4220:	bc 43 00 1f 	l.sfgtui r3,0x1f
    4224:	10 00 00 0d 	l.bf 4258 <intc_disable_interrupt+0x38>
    4228:	9c a3 ff e0 	l.addi r5,r3,0xffffffe0
		pintc_regs->enable &= ~(1 << intno);
    422c:	18 80 00 01 	l.movhi r4,0x1
    4230:	9c c0 00 01 	l.addi r6,r0,0x1
    4234:	a8 84 35 fc 	l.ori r4,r4,0x35fc
    4238:	e0 66 18 08 	l.sll r3,r6,r3
    423c:	84 84 00 00 	l.lwz r4,0x0(r4)
    4240:	ac 63 ff ff 	l.xori r3,r3,0xffffffff
    4244:	84 a4 00 40 	l.lwz r5,0x40(r4)
    4248:	e0 63 28 03 	l.and r3,r3,r5
    424c:	d4 04 18 40 	l.sw 0x40(r4),r3
		pintc_regs->enable1 &= ~(1 << (intno - 32));
	else
		pintc_regs->enable2 &= ~(1 << (intno - 64));

	return OK;
}
    4250:	00 00 00 18 	l.j 42b0 <intc_disable_interrupt+0x90>
    4254:	9d 60 00 00 	l.addi r11,r0,0x0
    4258:	18 80 00 01 	l.movhi r4,0x1
	ASSERT(intno < IRQ_SOUCE_MAX);

	/*enable interrupt which number is intno */
	if (intno <= 31)
		pintc_regs->enable &= ~(1 << intno);
	else if (intno > 31 && intno <= 63)
    425c:	bc 45 00 1f 	l.sfgtui r5,0x1f
    4260:	10 00 00 0b 	l.bf 428c <intc_disable_interrupt+0x6c>
    4264:	a8 84 35 fc 	l.ori r4,r4,0x35fc
		pintc_regs->enable1 &= ~(1 << (intno - 32));
    4268:	9c c0 00 01 	l.addi r6,r0,0x1
    426c:	84 64 00 00 	l.lwz r3,0x0(r4)
    4270:	e0 a6 28 08 	l.sll r5,r6,r5
    4274:	84 83 00 44 	l.lwz r4,0x44(r3)
    4278:	ac a5 ff ff 	l.xori r5,r5,0xffffffff
    427c:	e0 a5 20 03 	l.and r5,r5,r4
    4280:	d4 03 28 44 	l.sw 0x44(r3),r5
	else
		pintc_regs->enable2 &= ~(1 << (intno - 64));

	return OK;
}
    4284:	00 00 00 0b 	l.j 42b0 <intc_disable_interrupt+0x90>
    4288:	9d 60 00 00 	l.addi r11,r0,0x0
	if (intno <= 31)
		pintc_regs->enable &= ~(1 << intno);
	else if (intno > 31 && intno <= 63)
		pintc_regs->enable1 &= ~(1 << (intno - 32));
	else
		pintc_regs->enable2 &= ~(1 << (intno - 64));
    428c:	9c 63 ff c0 	l.addi r3,r3,0xffffffc0
    4290:	9c c0 00 01 	l.addi r6,r0,0x1
    4294:	84 84 00 00 	l.lwz r4,0x0(r4)
    4298:	e0 66 18 08 	l.sll r3,r6,r3
    429c:	84 a4 00 48 	l.lwz r5,0x48(r4)
    42a0:	ac 63 ff ff 	l.xori r3,r3,0xffffffff
    42a4:	e0 63 28 03 	l.and r3,r3,r5
    42a8:	d4 04 18 48 	l.sw 0x48(r4),r3

	return OK;
}
    42ac:	9d 60 00 00 	l.addi r11,r0,0x0
    42b0:	44 00 48 00 	l.jr r9
    42b4:	15 00 00 00 	l.nop 0x0

000042b8 <intc_interrupt_is_enabled>:

	/* intno can't beyond then IRQ_SOURCE_MAX */
	ASSERT(intno < IRQ_SOUCE_MAX);

	/* get interrupt enabled status which number is intno */
	if (intno <= 31)
    42b8:	bc 43 00 1f 	l.sfgtui r3,0x1f
    42bc:	10 00 00 08 	l.bf 42dc <intc_interrupt_is_enabled+0x24>
    42c0:	15 00 00 00 	l.nop 0x0
		enable_status = pintc_regs->enable & (1 << intno);
    42c4:	18 80 00 01 	l.movhi r4,0x1
    42c8:	a8 84 35 fc 	l.ori r4,r4,0x35fc
    42cc:	84 84 00 00 	l.lwz r4,0x0(r4)
    42d0:	84 84 00 40 	l.lwz r4,0x40(r4)
	else if (intno > 31 && intno <= 63)
		enable_status = pintc_regs->enable1 & (1 << (intno - 32));
	else
		enable_status = pintc_regs->enable2 & (1 << (intno - 64));
    42d4:	00 00 00 10 	l.j 4314 <intc_interrupt_is_enabled+0x5c>
    42d8:	9c a0 00 01 	l.addi r5,r0,0x1
	ASSERT(intno < IRQ_SOUCE_MAX);

	/* get interrupt enabled status which number is intno */
	if (intno <= 31)
		enable_status = pintc_regs->enable & (1 << intno);
	else if (intno > 31 && intno <= 63)
    42dc:	9c a3 ff e0 	l.addi r5,r3,0xffffffe0
    42e0:	18 80 00 01 	l.movhi r4,0x1
    42e4:	bc 45 00 1f 	l.sfgtui r5,0x1f
    42e8:	10 00 00 07 	l.bf 4304 <intc_interrupt_is_enabled+0x4c>
    42ec:	a8 84 35 fc 	l.ori r4,r4,0x35fc
		enable_status = pintc_regs->enable1 & (1 << (intno - 32));
    42f0:	84 64 00 00 	l.lwz r3,0x0(r4)
    42f4:	84 83 00 44 	l.lwz r4,0x44(r3)
    42f8:	9c 60 00 01 	l.addi r3,r0,0x1
    42fc:	00 00 00 07 	l.j 4318 <intc_interrupt_is_enabled+0x60>
    4300:	e0 63 28 08 	l.sll r3,r3,r5
	else
		enable_status = pintc_regs->enable2 & (1 << (intno - 64));
    4304:	84 84 00 00 	l.lwz r4,0x0(r4)
    4308:	9c 63 ff c0 	l.addi r3,r3,0xffffffc0
    430c:	84 84 00 48 	l.lwz r4,0x48(r4)
    4310:	9c a0 00 01 	l.addi r5,r0,0x1
    4314:	e0 65 18 08 	l.sll r3,r5,r3
    4318:	e0 63 20 03 	l.and r3,r3,r4

	return (!!enable_status);
    431c:	e0 80 18 02 	l.sub r4,r0,r3
    4320:	e0 64 18 04 	l.or r3,r4,r3
}
    4324:	44 00 48 00 	l.jr r9
    4328:	b9 63 00 5f 	l.srli r11,r3,0x1f

0000432c <intc_get_current_interrupt>:
*/
u32 intc_get_current_interrupt(void)
{
	volatile u32 interrupt;

	interrupt = (u32) ((pintc_regs->vector) >> 2);
    432c:	18 60 00 01 	l.movhi r3,0x1
*
* Note       :
*********************************************************************************************************
*/
u32 intc_get_current_interrupt(void)
{
    4330:	9c 21 ff fc 	l.addi r1,r1,0xfffffffc
	volatile u32 interrupt;

	interrupt = (u32) ((pintc_regs->vector) >> 2);
    4334:	a8 63 35 fc 	l.ori r3,r3,0x35fc
    4338:	84 63 00 00 	l.lwz r3,0x0(r3)
    433c:	84 63 00 00 	l.lwz r3,0x0(r3)
    4340:	b8 63 00 42 	l.srli r3,r3,0x2
    4344:	d4 01 18 00 	l.sw 0x0(r1),r3

	return interrupt;
}
    4348:	85 61 00 00 	l.lwz r11,0x0(r1)
    434c:	44 00 48 00 	l.jr r9
    4350:	9c 21 00 04 	l.addi r1,r1,0x4

00004354 <intc_set_mask>:
s32 intc_set_mask(u32 intno, u32 mask)
{
	/* intno can't beyond then IRQ_SOURCE_MAX */
	ASSERT(intno < IRQ_SOUCE_MAX);
	/* enable interrupt which number is intno */
	if (intno <= 31) {
    4354:	bc 43 00 1f 	l.sfgtui r3,0x1f
    4358:	10 00 00 11 	l.bf 439c <intc_set_mask+0x48>
    435c:	9c c3 ff e0 	l.addi r6,r3,0xffffffe0
		pintc_regs->mask &= ~(1 << intno);
    4360:	18 a0 00 01 	l.movhi r5,0x1
    4364:	9c c0 00 01 	l.addi r6,r0,0x1
    4368:	a8 a5 35 fc 	l.ori r5,r5,0x35fc
    436c:	e0 c6 18 08 	l.sll r6,r6,r3
    4370:	84 a5 00 00 	l.lwz r5,0x0(r5)
		pintc_regs->mask |= (mask << intno);
    4374:	e0 64 18 08 	l.sll r3,r4,r3
{
	/* intno can't beyond then IRQ_SOURCE_MAX */
	ASSERT(intno < IRQ_SOUCE_MAX);
	/* enable interrupt which number is intno */
	if (intno <= 31) {
		pintc_regs->mask &= ~(1 << intno);
    4378:	84 e5 00 50 	l.lwz r7,0x50(r5)
    437c:	ac c6 ff ff 	l.xori r6,r6,0xffffffff
    4380:	e0 c6 38 03 	l.and r6,r6,r7
    4384:	d4 05 30 50 	l.sw 0x50(r5),r6
		pintc_regs->mask |= (mask << intno);
    4388:	84 c5 00 50 	l.lwz r6,0x50(r5)
    438c:	e0 63 30 04 	l.or r3,r3,r6
    4390:	d4 05 18 50 	l.sw 0x50(r5),r3
		pintc_regs->mask2 &= ~(1 << (intno - 64));
		pintc_regs->mask2 |= (mask << intno);
	}

	return OK;
}
    4394:	00 00 00 1f 	l.j 4410 <intc_set_mask+0xbc>
    4398:	9d 60 00 00 	l.addi r11,r0,0x0
    439c:	18 a0 00 01 	l.movhi r5,0x1
	ASSERT(intno < IRQ_SOUCE_MAX);
	/* enable interrupt which number is intno */
	if (intno <= 31) {
		pintc_regs->mask &= ~(1 << intno);
		pintc_regs->mask |= (mask << intno);
	} else if (intno > 31 && intno <= 63) {
    43a0:	bc 46 00 1f 	l.sfgtui r6,0x1f
    43a4:	a8 a5 35 fc 	l.ori r5,r5,0x35fc
    43a8:	10 00 00 0e 	l.bf 43e0 <intc_set_mask+0x8c>
    43ac:	e0 84 18 08 	l.sll r4,r4,r3
		pintc_regs->mask1 &= ~(1 << (intno - 32));
    43b0:	9c e0 00 01 	l.addi r7,r0,0x1
    43b4:	84 a5 00 00 	l.lwz r5,0x0(r5)
    43b8:	e0 c7 30 08 	l.sll r6,r7,r6
    43bc:	84 65 00 54 	l.lwz r3,0x54(r5)
    43c0:	ac c6 ff ff 	l.xori r6,r6,0xffffffff
    43c4:	e0 c6 18 03 	l.and r6,r6,r3
    43c8:	d4 05 30 54 	l.sw 0x54(r5),r6
		pintc_regs->mask1 |= (mask << intno);
    43cc:	84 65 00 54 	l.lwz r3,0x54(r5)
    43d0:	e0 84 18 04 	l.or r4,r4,r3
    43d4:	d4 05 20 54 	l.sw 0x54(r5),r4
		pintc_regs->mask2 &= ~(1 << (intno - 64));
		pintc_regs->mask2 |= (mask << intno);
	}

	return OK;
}
    43d8:	00 00 00 0e 	l.j 4410 <intc_set_mask+0xbc>
    43dc:	9d 60 00 00 	l.addi r11,r0,0x0
		pintc_regs->mask |= (mask << intno);
	} else if (intno > 31 && intno <= 63) {
		pintc_regs->mask1 &= ~(1 << (intno - 32));
		pintc_regs->mask1 |= (mask << intno);
	} else {
		pintc_regs->mask2 &= ~(1 << (intno - 64));
    43e0:	9c 63 ff c0 	l.addi r3,r3,0xffffffc0
    43e4:	9c e0 00 01 	l.addi r7,r0,0x1
    43e8:	84 a5 00 00 	l.lwz r5,0x0(r5)
    43ec:	e0 67 18 08 	l.sll r3,r7,r3
    43f0:	84 c5 00 58 	l.lwz r6,0x58(r5)
    43f4:	ac 63 ff ff 	l.xori r3,r3,0xffffffff
    43f8:	e0 63 30 03 	l.and r3,r3,r6
    43fc:	d4 05 18 58 	l.sw 0x58(r5),r3
		pintc_regs->mask2 |= (mask << intno);
    4400:	84 65 00 58 	l.lwz r3,0x58(r5)
    4404:	e0 84 18 04 	l.or r4,r4,r3
    4408:	d4 05 20 58 	l.sw 0x58(r5),r4
	}

	return OK;
}
    440c:	9d 60 00 00 	l.addi r11,r0,0x0
    4410:	44 00 48 00 	l.jr r9
    4414:	15 00 00 00 	l.nop 0x0

00004418 <intc_set_group_config>:

s32 intc_set_group_config(u32 grp_irq_num, u32 mask)
{
	if (grp_irq_num <= 31) {
    4418:	bc 43 00 1f 	l.sfgtui r3,0x1f
    441c:	10 00 00 11 	l.bf 4460 <intc_set_group_config+0x48>
    4420:	9c c3 ff e0 	l.addi r6,r3,0xffffffe0
		pintc_regs->group_config0 &= ~(1 << grp_irq_num);
    4424:	18 a0 00 01 	l.movhi r5,0x1
    4428:	9c c0 00 01 	l.addi r6,r0,0x1
    442c:	a8 a5 35 fc 	l.ori r5,r5,0x35fc
    4430:	e0 c6 18 08 	l.sll r6,r6,r3
    4434:	84 a5 00 00 	l.lwz r5,0x0(r5)
		pintc_regs->group_config0 |= (mask << grp_irq_num);
    4438:	e0 64 18 08 	l.sll r3,r4,r3
}

s32 intc_set_group_config(u32 grp_irq_num, u32 mask)
{
	if (grp_irq_num <= 31) {
		pintc_regs->group_config0 &= ~(1 << grp_irq_num);
    443c:	84 e5 00 c0 	l.lwz r7,0xc0(r5)
    4440:	ac c6 ff ff 	l.xori r6,r6,0xffffffff
    4444:	e0 c6 38 03 	l.and r6,r6,r7
    4448:	d4 05 30 c0 	l.sw 0xc0(r5),r6
		pintc_regs->group_config0 |= (mask << grp_irq_num);
    444c:	84 c5 00 c0 	l.lwz r6,0xc0(r5)
    4450:	e0 63 30 04 	l.or r3,r3,r6
    4454:	d4 05 18 c0 	l.sw 0xc0(r5),r3
		pintc_regs->group_config3 &= ~(1 << (grp_irq_num - 64));
		pintc_regs->group_config3 |= (mask << grp_irq_num);
	}

	return OK;
}
    4458:	00 00 00 2f 	l.j 4514 <intc_set_group_config+0xfc>
    445c:	9d 60 00 00 	l.addi r11,r0,0x0
s32 intc_set_group_config(u32 grp_irq_num, u32 mask)
{
	if (grp_irq_num <= 31) {
		pintc_regs->group_config0 &= ~(1 << grp_irq_num);
		pintc_regs->group_config0 |= (mask << grp_irq_num);
	} else if (grp_irq_num > 31 && grp_irq_num <= 63) {
    4460:	bc 46 00 1f 	l.sfgtui r6,0x1f
    4464:	10 00 00 10 	l.bf 44a4 <intc_set_group_config+0x8c>
    4468:	18 a0 00 01 	l.movhi r5,0x1
		pintc_regs->group_config1 &= ~(1 << (grp_irq_num - 32));
    446c:	9d 00 00 01 	l.addi r8,r0,0x1
    4470:	a8 a5 35 fc 	l.ori r5,r5,0x35fc
    4474:	e0 c8 30 08 	l.sll r6,r8,r6
    4478:	84 a5 00 00 	l.lwz r5,0x0(r5)
		pintc_regs->group_config1 |= (mask << grp_irq_num);
    447c:	e0 64 18 08 	l.sll r3,r4,r3
{
	if (grp_irq_num <= 31) {
		pintc_regs->group_config0 &= ~(1 << grp_irq_num);
		pintc_regs->group_config0 |= (mask << grp_irq_num);
	} else if (grp_irq_num > 31 && grp_irq_num <= 63) {
		pintc_regs->group_config1 &= ~(1 << (grp_irq_num - 32));
    4480:	84 e5 00 c4 	l.lwz r7,0xc4(r5)
    4484:	ac c6 ff ff 	l.xori r6,r6,0xffffffff
    4488:	e0 c6 38 03 	l.and r6,r6,r7
    448c:	d4 05 30 c4 	l.sw 0xc4(r5),r6
		pintc_regs->group_config1 |= (mask << grp_irq_num);
    4490:	84 c5 00 c4 	l.lwz r6,0xc4(r5)
    4494:	e0 63 30 04 	l.or r3,r3,r6
    4498:	d4 05 18 c4 	l.sw 0xc4(r5),r3
		pintc_regs->group_config3 &= ~(1 << (grp_irq_num - 64));
		pintc_regs->group_config3 |= (mask << grp_irq_num);
	}

	return OK;
}
    449c:	00 00 00 1e 	l.j 4514 <intc_set_group_config+0xfc>
    44a0:	9d 60 00 00 	l.addi r11,r0,0x0
		pintc_regs->group_config0 &= ~(1 << grp_irq_num);
		pintc_regs->group_config0 |= (mask << grp_irq_num);
	} else if (grp_irq_num > 31 && grp_irq_num <= 63) {
		pintc_regs->group_config1 &= ~(1 << (grp_irq_num - 32));
		pintc_regs->group_config1 |= (mask << grp_irq_num);
	} else if (grp_irq_num > 63 && grp_irq_num <= 95) {
    44a4:	9c c3 ff c0 	l.addi r6,r3,0xffffffc0
    44a8:	bc 46 00 1f 	l.sfgtui r6,0x1f
    44ac:	a8 a5 35 fc 	l.ori r5,r5,0x35fc
    44b0:	10 00 00 0e 	l.bf 44e8 <intc_set_group_config+0xd0>
    44b4:	e0 64 18 08 	l.sll r3,r4,r3
		pintc_regs->group_config2 &= ~(1 << (grp_irq_num - 64));
    44b8:	9c e0 00 01 	l.addi r7,r0,0x1
    44bc:	84 a5 00 00 	l.lwz r5,0x0(r5)
    44c0:	e0 c7 30 08 	l.sll r6,r7,r6
    44c4:	84 85 00 c8 	l.lwz r4,0xc8(r5)
    44c8:	ac c6 ff ff 	l.xori r6,r6,0xffffffff
    44cc:	e0 c6 20 03 	l.and r6,r6,r4
    44d0:	d4 05 30 c8 	l.sw 0xc8(r5),r6
		pintc_regs->group_config2 |= (mask << grp_irq_num);
    44d4:	84 85 00 c8 	l.lwz r4,0xc8(r5)
    44d8:	e0 63 20 04 	l.or r3,r3,r4
    44dc:	d4 05 18 c8 	l.sw 0xc8(r5),r3
		pintc_regs->group_config3 &= ~(1 << (grp_irq_num - 64));
		pintc_regs->group_config3 |= (mask << grp_irq_num);
	}

	return OK;
}
    44e0:	00 00 00 0d 	l.j 4514 <intc_set_group_config+0xfc>
    44e4:	9d 60 00 00 	l.addi r11,r0,0x0
		pintc_regs->group_config1 |= (mask << grp_irq_num);
	} else if (grp_irq_num > 63 && grp_irq_num <= 95) {
		pintc_regs->group_config2 &= ~(1 << (grp_irq_num - 64));
		pintc_regs->group_config2 |= (mask << grp_irq_num);
	} else {
		pintc_regs->group_config3 &= ~(1 << (grp_irq_num - 64));
    44e8:	9c e0 00 01 	l.addi r7,r0,0x1
    44ec:	84 a5 00 00 	l.lwz r5,0x0(r5)
    44f0:	e0 c7 30 08 	l.sll r6,r7,r6
    44f4:	84 85 00 cc 	l.lwz r4,0xcc(r5)
    44f8:	ac c6 ff ff 	l.xori r6,r6,0xffffffff
    44fc:	e0 c6 20 03 	l.and r6,r6,r4
    4500:	d4 05 30 cc 	l.sw 0xcc(r5),r6
		pintc_regs->group_config3 |= (mask << grp_irq_num);
    4504:	84 85 00 cc 	l.lwz r4,0xcc(r5)
    4508:	e0 63 20 04 	l.or r3,r3,r4
    450c:	d4 05 18 cc 	l.sw 0xcc(r5),r3
	}

	return OK;
}
    4510:	9d 60 00 00 	l.addi r11,r0,0x0
    4514:	44 00 48 00 	l.jr r9
    4518:	15 00 00 00 	l.nop 0x0

0000451c <isr_default>:
		pintc_regs->pending = (1 << (intno - 64));
	return OK;
}

s32 isr_default(void *arg)
{
    451c:	d7 e1 4f fc 	l.sw 0xfffffffc(r1),r9
	ERR("irq [%x] enable before ISR install\n",
    4520:	07 ff ff 83 	l.jal 432c <intc_get_current_interrupt>
    4524:	9c 21 ff f8 	l.addi r1,r1,0xfffffff8
    4528:	18 80 00 01 	l.movhi r4,0x1
    452c:	9c 60 00 08 	l.addi r3,r0,0x8
    4530:	a8 84 25 34 	l.ori r4,r4,0x2534
    4534:	04 00 16 a1 	l.jal 9fb8 <debugger_printf>
    4538:	d4 01 58 00 	l.sw 0x0(r1),r11
	    intc_get_current_interrupt());

	return TRUE;
}
    453c:	9c 21 00 08 	l.addi r1,r1,0x8
    4540:	85 21 ff fc 	l.lwz r9,0xfffffffc(r1)
    4544:	44 00 48 00 	l.jr r9
    4548:	9d 60 00 01 	l.addi r11,r0,0x1

0000454c <interrupt_init>:
*
* Returns    :  OK if initialize interrupt manager succeeded, others if failed.
*********************************************************************************************************
*/
s32 interrupt_init(void)
{
    454c:	d7 e1 4f fc 	l.sw 0xfffffffc(r1),r9
    4550:	d7 e1 17 f8 	l.sw 0xfffffff8(r1),r2
	s32 index;

	/*initialize interrupt controller */
	intc_init();
    4554:	07 ff fe e7 	l.jal 40f0 <intc_init>
    4558:	9c 21 ff f8 	l.addi r1,r1,0xfffffff8
    455c:	18 60 00 01 	l.movhi r3,0x1

	/*initialize ISR table */
	for (index = 0; index < IRQ_SOUCE_MAX; index++) {
		isr_table[index].pisr = isr_default;
    4560:	18 80 00 00 	l.movhi r4,0x0
s32 interrupt_init(void)
{
	s32 index;

	/*initialize interrupt controller */
	intc_init();
    4564:	a8 63 36 04 	l.ori r3,r3,0x3604

	/*initialize ISR table */
	for (index = 0; index < IRQ_SOUCE_MAX; index++) {
		isr_table[index].pisr = isr_default;
    4568:	a8 84 45 1c 	l.ori r4,r4,0x451c
		isr_table[index].parg = NULL;
    456c:	9c 40 00 00 	l.addi r2,r0,0x0
	/*initialize interrupt controller */
	intc_init();

	/*initialize ISR table */
	for (index = 0; index < IRQ_SOUCE_MAX; index++) {
		isr_table[index].pisr = isr_default;
    4570:	d4 03 20 00 	l.sw 0x0(r3),r4
		isr_table[index].parg = NULL;
    4574:	d4 03 10 04 	l.sw 0x4(r3),r2

	/*initialize interrupt controller */
	intc_init();

	/*initialize ISR table */
	for (index = 0; index < IRQ_SOUCE_MAX; index++) {
    4578:	18 40 00 01 	l.movhi r2,0x1
		isr_table[index].pisr = isr_default;
		isr_table[index].parg = NULL;
    457c:	9c 63 00 08 	l.addi r3,r3,0x8

	/*initialize interrupt controller */
	intc_init();

	/*initialize ISR table */
	for (index = 0; index < IRQ_SOUCE_MAX; index++) {
    4580:	a8 42 37 2c 	l.ori r2,r2,0x372c
    4584:	e4 23 10 00 	l.sfne r3,r2
    4588:	13 ff ff f9 	l.bf 456c <interrupt_init+0x20>
    458c:	9d 60 00 00 	l.addi r11,r0,0x0
		isr_table[index].parg = NULL;
	}

	/*interrupt manager initialize succeeded */
	return OK;
}
    4590:	9c 21 00 08 	l.addi r1,r1,0x8
    4594:	85 21 ff fc 	l.lwz r9,0xfffffffc(r1)
    4598:	44 00 48 00 	l.jr r9
    459c:	84 41 ff f8 	l.lwz r2,0xfffffff8(r1)

000045a0 <interrupt_exit>:
*
* Returns    :  OK if exit interrupt manager succeeded, others if failed.
*********************************************************************************************************
*/
s32 interrupt_exit(void)
{
    45a0:	d7 e1 4f fc 	l.sw 0xfffffffc(r1),r9
	intc_exit();
    45a4:	07 ff fe e9 	l.jal 4148 <intc_exit>
    45a8:	9c 21 ff fc 	l.addi r1,r1,0xfffffffc

	return OK;
}
    45ac:	9c 21 00 04 	l.addi r1,r1,0x4
    45b0:	85 21 ff fc 	l.lwz r9,0xfffffffc(r1)
    45b4:	44 00 48 00 	l.jr r9
    45b8:	9d 60 00 00 	l.addi r11,r0,0x0

000045bc <interrupt_enable>:
*
* Returns    :  OK if enable interrupt succeeded, others if failed.
*********************************************************************************************************
*/
s32 interrupt_enable(u32 intno)
{
    45bc:	d7 e1 4f fc 	l.sw 0xfffffffc(r1),r9
    45c0:	9c 21 ff fc 	l.addi r1,r1,0xfffffffc
	return intc_enable_interrupt(intno);
}
    45c4:	9c 21 00 04 	l.addi r1,r1,0x4
    45c8:	85 21 ff fc 	l.lwz r9,0xfffffffc(r1)
* Returns    :  OK if enable interrupt succeeded, others if failed.
*********************************************************************************************************
*/
s32 interrupt_enable(u32 intno)
{
	return intc_enable_interrupt(intno);
    45cc:	03 ff fe e9 	l.j 4170 <intc_enable_interrupt>
    45d0:	15 00 00 00 	l.nop 0x0

000045d4 <interrupt_disable>:
*
* Returns    :  OK if disable interrupt succeeded, others if failed.
*********************************************************************************************************
*/
s32 interrupt_disable(u32 intno)
{
    45d4:	d7 e1 4f fc 	l.sw 0xfffffffc(r1),r9
    45d8:	9c 21 ff fc 	l.addi r1,r1,0xfffffffc
	return intc_disable_interrupt(intno);
}
    45dc:	9c 21 00 04 	l.addi r1,r1,0x4
    45e0:	85 21 ff fc 	l.lwz r9,0xfffffffc(r1)
* Returns    :  OK if disable interrupt succeeded, others if failed.
*********************************************************************************************************
*/
s32 interrupt_disable(u32 intno)
{
	return intc_disable_interrupt(intno);
    45e4:	03 ff ff 0f 	l.j 4220 <intc_disable_interrupt>
    45e8:	15 00 00 00 	l.nop 0x0

000045ec <interrupt_set_nmi_trigger>:
*/
s32 interrupt_set_nmi_trigger(u32 type)
{
	u32 value;

	pintc_regs->control = type;
    45ec:	18 80 00 01 	l.movhi r4,0x1
	value = pintc_regs->mask;
	value |= 0x1;
	pintc_regs->mask = value;

	return OK;
}
    45f0:	9d 60 00 00 	l.addi r11,r0,0x0
*/
s32 interrupt_set_nmi_trigger(u32 type)
{
	u32 value;

	pintc_regs->control = type;
    45f4:	a8 84 35 fc 	l.ori r4,r4,0x35fc
    45f8:	84 84 00 00 	l.lwz r4,0x0(r4)
    45fc:	d4 04 18 0c 	l.sw 0xc(r4),r3

	/*mask cpus nmi irq */
	value = pintc_regs->mask;
    4600:	84 64 00 50 	l.lwz r3,0x50(r4)
	value |= 0x1;
    4604:	a8 63 00 01 	l.ori r3,r3,0x1
	pintc_regs->mask = value;
    4608:	d4 04 18 50 	l.sw 0x50(r4),r3

	return OK;
}
    460c:	44 00 48 00 	l.jr r9
    4610:	15 00 00 00 	l.nop 0x0

00004614 <interrupt_set_mask>:

s32 interrupt_set_mask(u32 intno, u32 mask)
{
    4614:	d7 e1 4f fc 	l.sw 0xfffffffc(r1),r9
    4618:	9c 21 ff fc 	l.addi r1,r1,0xfffffffc
	return intc_set_mask(intno, mask);
}
    461c:	9c 21 00 04 	l.addi r1,r1,0x4
    4620:	85 21 ff fc 	l.lwz r9,0xfffffffc(r1)
	return OK;
}

s32 interrupt_set_mask(u32 intno, u32 mask)
{
	return intc_set_mask(intno, mask);
    4624:	03 ff ff 4c 	l.j 4354 <intc_set_mask>
    4628:	15 00 00 00 	l.nop 0x0

0000462c <interrupt_set_group_config>:
}

s32 interrupt_set_group_config(u32 grp_irq_num, u32 mask)
{
    462c:	d7 e1 4f fc 	l.sw 0xfffffffc(r1),r9
    4630:	9c 21 ff fc 	l.addi r1,r1,0xfffffffc
	return intc_set_group_config(grp_irq_num, mask);
}
    4634:	9c 21 00 04 	l.addi r1,r1,0x4
    4638:	85 21 ff fc 	l.lwz r9,0xfffffffc(r1)
	return intc_set_mask(intno, mask);
}

s32 interrupt_set_group_config(u32 grp_irq_num, u32 mask)
{
	return intc_set_group_config(grp_irq_num, mask);
    463c:	03 ff ff 77 	l.j 4418 <intc_set_group_config>
    4640:	15 00 00 00 	l.nop 0x0

00004644 <install_isr>:
*
* Note       :  the ISR execute entironment : CPU disable interrupt response.
*********************************************************************************************************
*/
s32 install_isr(u32 intno, __pISR_t pisr, void *parg)
{
    4644:	d7 e1 17 fc 	l.sw 0xfffffffc(r1),r2
	/*intno can't beyond then IRQ_SOURCE_MAX */
	ASSERT(intno < IRQ_SOUCE_MAX);

	/*default isr, install directly */
	INF("install isr %x\n", intno);
	isr_table[intno].pisr = pisr;
    4648:	18 40 00 01 	l.movhi r2,0x1
    464c:	b8 63 00 03 	l.slli r3,r3,0x3
    4650:	a8 42 36 04 	l.ori r2,r2,0x3604
*
* Note       :  the ISR execute entironment : CPU disable interrupt response.
*********************************************************************************************************
*/
s32 install_isr(u32 intno, __pISR_t pisr, void *parg)
{
    4654:	9c 21 ff fc 	l.addi r1,r1,0xfffffffc
	/*intno can't beyond then IRQ_SOURCE_MAX */
	ASSERT(intno < IRQ_SOUCE_MAX);

	/*default isr, install directly */
	INF("install isr %x\n", intno);
	isr_table[intno].pisr = pisr;
    4658:	e0 63 10 00 	l.add r3,r3,r2
	isr_table[intno].parg = parg;

	return OK;
}
    465c:	9d 60 00 00 	l.addi r11,r0,0x0
	/*intno can't beyond then IRQ_SOURCE_MAX */
	ASSERT(intno < IRQ_SOUCE_MAX);

	/*default isr, install directly */
	INF("install isr %x\n", intno);
	isr_table[intno].pisr = pisr;
    4660:	d4 03 20 00 	l.sw 0x0(r3),r4
	isr_table[intno].parg = parg;
    4664:	d4 03 28 04 	l.sw 0x4(r3),r5

	return OK;
}
    4668:	9c 21 00 04 	l.addi r1,r1,0x4
    466c:	44 00 48 00 	l.jr r9
    4670:	84 41 ff fc 	l.lwz r2,0xfffffffc(r1)

00004674 <uninstall_isr>:
*
* Returns    :  OK if uninstall ISR succeeded, others if failed.
*********************************************************************************************************
*/
s32 uninstall_isr(u32 intno, __pISR_t pisr)
{
    4674:	d7 e1 17 f8 	l.sw 0xfffffff8(r1),r2
	/*intno can't beyond then IRQ_SOURCE_MAX */
	ASSERT(intno < IRQ_SOUCE_MAX);

	if (isr_table[intno].pisr == pisr) {
    4678:	18 40 00 01 	l.movhi r2,0x1
    467c:	b8 63 00 03 	l.slli r3,r3,0x3
    4680:	a8 42 36 04 	l.ori r2,r2,0x3604
*
* Returns    :  OK if uninstall ISR succeeded, others if failed.
*********************************************************************************************************
*/
s32 uninstall_isr(u32 intno, __pISR_t pisr)
{
    4684:	d7 e1 4f fc 	l.sw 0xfffffffc(r1),r9
	/*intno can't beyond then IRQ_SOURCE_MAX */
	ASSERT(intno < IRQ_SOUCE_MAX);

	if (isr_table[intno].pisr == pisr) {
    4688:	e0 63 10 00 	l.add r3,r3,r2
    468c:	84 a3 00 00 	l.lwz r5,0x0(r3)
    4690:	e4 25 20 00 	l.sfne r5,r4
    4694:	10 00 00 09 	l.bf 46b8 <uninstall_isr+0x44>
    4698:	9c 21 ff f8 	l.addi r1,r1,0xfffffff8
		/*uninstall isr */
		isr_table[intno].pisr = isr_default;
    469c:	18 80 00 00 	l.movhi r4,0x0
		isr_table[intno].parg = NULL;
    46a0:	9c 40 00 00 	l.addi r2,r0,0x0
	/*intno can't beyond then IRQ_SOURCE_MAX */
	ASSERT(intno < IRQ_SOUCE_MAX);

	if (isr_table[intno].pisr == pisr) {
		/*uninstall isr */
		isr_table[intno].pisr = isr_default;
    46a4:	a8 84 45 1c 	l.ori r4,r4,0x451c
		isr_table[intno].parg = NULL;
    46a8:	d4 03 10 04 	l.sw 0x4(r3),r2
	/*intno can't beyond then IRQ_SOURCE_MAX */
	ASSERT(intno < IRQ_SOUCE_MAX);

	if (isr_table[intno].pisr == pisr) {
		/*uninstall isr */
		isr_table[intno].pisr = isr_default;
    46ac:	d4 03 20 00 	l.sw 0x0(r3),r4
		 */
		ERR("ISR not installed!\n");
		return -EFAIL;
	}

	return OK;
    46b0:	00 00 00 07 	l.j 46cc <uninstall_isr+0x58>
    46b4:	a9 62 00 00 	l.ori r11,r2,0x0
	} else {
		/*
		 * don't support shared interrupt now,
		 * by sunny at 2012-5-3 11:20:28.
		 */
		ERR("ISR not installed!\n");
    46b8:	18 80 00 01 	l.movhi r4,0x1
    46bc:	9c 60 00 08 	l.addi r3,r0,0x8
    46c0:	04 00 16 3e 	l.jal 9fb8 <debugger_printf>
    46c4:	a8 84 25 5c 	l.ori r4,r4,0x255c
		return -EFAIL;
    46c8:	9d 60 ff dc 	l.addi r11,r0,0xffffffdc
	}

	return OK;
}
    46cc:	9c 21 00 08 	l.addi r1,r1,0x8
    46d0:	85 21 ff fc 	l.lwz r9,0xfffffffc(r1)
    46d4:	44 00 48 00 	l.jr r9
    46d8:	84 41 ff f8 	l.lwz r2,0xfffffff8(r1)

000046dc <interrupt_entry>:
*
* Returns    :  OK if process CPU IRQ succeeded, others if failed.
*********************************************************************************************************
*/
s32 interrupt_entry(void)
{
    46dc:	d7 e1 4f fc 	l.sw 0xfffffffc(r1),r9
    46e0:	d7 e1 17 f8 	l.sw 0xfffffff8(r1),r2
    46e4:	9c 21 ff f8 	l.addi r1,r1,0xfffffff8
	u32 intno = intc_get_current_interrupt();
    46e8:	07 ff ff 11 	l.jal 432c <intc_get_current_interrupt>
    46ec:	18 40 00 01 	l.movhi r2,0x1

	/*
	 * process interrupt by call isr,
	 * not support shared intterrupt.
	 */
	(isr_table[intno].pisr) (isr_table[intno].parg);
    46f0:	b8 6b 00 03 	l.slli r3,r11,0x3
    46f4:	a8 42 36 04 	l.ori r2,r2,0x3604
    46f8:	e0 63 10 00 	l.add r3,r3,r2
    46fc:	85 63 00 00 	l.lwz r11,0x0(r3)
    4700:	48 00 58 00 	l.jalr r11
    4704:	84 63 00 04 	l.lwz r3,0x4(r3)

	return OK;
}
    4708:	9c 21 00 08 	l.addi r1,r1,0x8
    470c:	9d 60 00 00 	l.addi r11,r0,0x0
    4710:	85 21 ff fc 	l.lwz r9,0xfffffffc(r1)
    4714:	44 00 48 00 	l.jr r9
    4718:	84 41 ff f8 	l.lwz r2,0xfffffff8(r1)

0000471c <interrupt_query_pending>:

s32 interrupt_query_pending(u32 intno)
{
	volatile u32 pending;

	if (intno <= 31)
    471c:	bc 43 00 1f 	l.sfgtui r3,0x1f
    4720:	10 00 00 08 	l.bf 4740 <interrupt_query_pending+0x24>
    4724:	9c 21 ff fc 	l.addi r1,r1,0xfffffffc
		pending = pintc_regs->pending & (1 << intno);
    4728:	18 80 00 01 	l.movhi r4,0x1
    472c:	a8 84 35 fc 	l.ori r4,r4,0x35fc
    4730:	84 84 00 00 	l.lwz r4,0x0(r4)
    4734:	84 84 00 10 	l.lwz r4,0x10(r4)
	else if (intno > 31 && intno <= 63)
		pending = pintc_regs->pending1 & (1 << (intno - 32));
	else
		pending = pintc_regs->pending2 & (1 << (intno - 64));
    4738:	00 00 00 13 	l.j 4784 <interrupt_query_pending+0x68>
    473c:	9c a0 00 01 	l.addi r5,r0,0x1
{
	volatile u32 pending;

	if (intno <= 31)
		pending = pintc_regs->pending & (1 << intno);
	else if (intno > 31 && intno <= 63)
    4740:	9c a3 ff e0 	l.addi r5,r3,0xffffffe0
    4744:	18 80 00 01 	l.movhi r4,0x1
    4748:	bc 45 00 1f 	l.sfgtui r5,0x1f
    474c:	10 00 00 0a 	l.bf 4774 <interrupt_query_pending+0x58>
    4750:	a8 84 35 fc 	l.ori r4,r4,0x35fc
		pending = pintc_regs->pending1 & (1 << (intno - 32));
    4754:	84 64 00 00 	l.lwz r3,0x0(r4)
    4758:	9c 80 00 01 	l.addi r4,r0,0x1
    475c:	84 63 00 14 	l.lwz r3,0x14(r3)
    4760:	e0 a4 28 08 	l.sll r5,r4,r5
    4764:	e0 a5 18 03 	l.and r5,r5,r3
    4768:	d4 01 28 00 	l.sw 0x0(r1),r5
    476c:	00 00 00 09 	l.j 4790 <interrupt_query_pending+0x74>
    4770:	15 00 00 00 	l.nop 0x0
	else
		pending = pintc_regs->pending2 & (1 << (intno - 64));
    4774:	84 84 00 00 	l.lwz r4,0x0(r4)
    4778:	9c 63 ff c0 	l.addi r3,r3,0xffffffc0
    477c:	84 84 00 18 	l.lwz r4,0x18(r4)
    4780:	9c a0 00 01 	l.addi r5,r0,0x1
    4784:	e0 65 18 08 	l.sll r3,r5,r3
    4788:	e0 63 20 03 	l.and r3,r3,r4
    478c:	d4 01 18 00 	l.sw 0x0(r1),r3
	return pending;
}
    4790:	85 61 00 00 	l.lwz r11,0x0(r1)
    4794:	44 00 48 00 	l.jr r9
    4798:	9c 21 00 04 	l.addi r1,r1,0x4

0000479c <interrupt_clear_pending>:

s32 interrupt_clear_pending(u32 intno)
{
	if (intno <= 31)
    479c:	bc 43 00 1f 	l.sfgtui r3,0x1f
    47a0:	10 00 00 06 	l.bf 47b8 <interrupt_clear_pending+0x1c>
    47a4:	9c a3 ff e0 	l.addi r5,r3,0xffffffe0
		pintc_regs->pending = (1 << intno);
    47a8:	18 80 00 01 	l.movhi r4,0x1
    47ac:	a8 84 35 fc 	l.ori r4,r4,0x35fc
    47b0:	00 00 00 0e 	l.j 47e8 <interrupt_clear_pending+0x4c>
    47b4:	84 84 00 00 	l.lwz r4,0x0(r4)
    47b8:	18 80 00 01 	l.movhi r4,0x1
	else if (intno > 31 && intno <= 63)
    47bc:	bc 45 00 1f 	l.sfgtui r5,0x1f
    47c0:	10 00 00 08 	l.bf 47e0 <interrupt_clear_pending+0x44>
    47c4:	a8 84 35 fc 	l.ori r4,r4,0x35fc
		pintc_regs->pending = (1 << (intno - 32));
    47c8:	84 64 00 00 	l.lwz r3,0x0(r4)
    47cc:	9c 80 00 01 	l.addi r4,r0,0x1
    47d0:	e0 a4 28 08 	l.sll r5,r4,r5
    47d4:	d4 03 28 10 	l.sw 0x10(r3),r5
	else
		pintc_regs->pending = (1 << (intno - 64));
	return OK;
}
    47d8:	00 00 00 08 	l.j 47f8 <interrupt_clear_pending+0x5c>
    47dc:	9d 60 00 00 	l.addi r11,r0,0x0
	if (intno <= 31)
		pintc_regs->pending = (1 << intno);
	else if (intno > 31 && intno <= 63)
		pintc_regs->pending = (1 << (intno - 32));
	else
		pintc_regs->pending = (1 << (intno - 64));
    47e0:	84 84 00 00 	l.lwz r4,0x0(r4)
    47e4:	9c 63 ff c0 	l.addi r3,r3,0xffffffc0
    47e8:	9c a0 00 01 	l.addi r5,r0,0x1
    47ec:	e0 65 18 08 	l.sll r3,r5,r3
    47f0:	d4 04 18 10 	l.sw 0x10(r4),r3
	return OK;
}
    47f4:	9d 60 00 00 	l.addi r11,r0,0x0
    47f8:	44 00 48 00 	l.jr r9
    47fc:	15 00 00 00 	l.nop 0x0

00004800 <interrupt_get_current_intno>:

	return TRUE;
}

u32 interrupt_get_current_intno(void)
{
    4800:	d7 e1 4f fc 	l.sw 0xfffffffc(r1),r9
    4804:	9c 21 ff fc 	l.addi r1,r1,0xfffffffc
	return intc_get_current_interrupt();
}
    4808:	9c 21 00 04 	l.addi r1,r1,0x4
    480c:	85 21 ff fc 	l.lwz r9,0xfffffffc(r1)
	return TRUE;
}

u32 interrupt_get_current_intno(void)
{
	return intc_get_current_interrupt();
    4810:	03 ff fe c7 	l.j 432c <intc_get_current_interrupt>
    4814:	15 00 00 00 	l.nop 0x0

00004818 <interrupt_get_enabled>:
}

s32 interrupt_get_enabled(u32 intno)
{
    4818:	d7 e1 4f fc 	l.sw 0xfffffffc(r1),r9
    481c:	9c 21 ff fc 	l.addi r1,r1,0xfffffffc
	return intc_interrupt_is_enabled(intno);
}
    4820:	9c 21 00 04 	l.addi r1,r1,0x4
    4824:	85 21 ff fc 	l.lwz r9,0xfffffffc(r1)
	return intc_get_current_interrupt();
}

s32 interrupt_get_enabled(u32 intno)
{
	return intc_interrupt_is_enabled(intno);
    4828:	03 ff fe a4 	l.j 42b8 <intc_interrupt_is_enabled>
    482c:	15 00 00 00 	l.nop 0x0

00004830 <pin_init>:
*********************************************************************************************************
*/
s32 pin_init(void)
{
	return OK;
}
    4830:	44 00 48 00 	l.jr r9
    4834:	9d 60 00 00 	l.addi r11,r0,0x0

00004838 <pin_exit>:
*********************************************************************************************************
*/
s32 pin_exit(void)
{
	return OK;
}
    4838:	44 00 48 00 	l.jr r9
    483c:	9d 60 00 00 	l.addi r11,r0,0x0

00004840 <pin_set_status>:
*********************************************************************************************************
*/
s32 pin_set_status(u32 pin_grp, u32 pin_num, struct pin_status *pstatus)
{
	return OK;
}
    4840:	44 00 48 00 	l.jr r9
    4844:	9d 60 00 00 	l.addi r11,r0,0x0

00004848 <pin_set_multi_sel>:
{
	volatile u32 *addr;
	volatile u32 value;

	/*set multi-select */
	addr = PIN_REG_CFG(pin_grp, pin_num);
    4848:	b8 c3 00 03 	l.slli r6,r3,0x3
*
* Returns    :  OK if set pin multi-select succeeded, others if failed.
*********************************************************************************************************
*/
s32 pin_set_multi_sel(u32 pin_grp, u32 pin_num, u32 multi_sel)
{
    484c:	d7 e1 17 fc 	l.sw 0xfffffffc(r1),r2
	volatile u32 *addr;
	volatile u32 value;

	/*set multi-select */
	addr = PIN_REG_CFG(pin_grp, pin_num);
    4850:	18 40 01 c0 	l.movhi r2,0x1c0
    4854:	e0 66 18 00 	l.add r3,r6,r3
    4858:	a8 42 87 f7 	l.ori r2,r2,0x87f7
    485c:	b8 c4 00 43 	l.srli r6,r4,0x3
    4860:	e0 63 10 00 	l.add r3,r3,r2
	value = *addr;
	value &= ~(0x7 << ((pin_num & 0x7) * 4));
    4864:	a4 84 00 07 	l.andi r4,r4,0x7
{
	volatile u32 *addr;
	volatile u32 value;

	/*set multi-select */
	addr = PIN_REG_CFG(pin_grp, pin_num);
    4868:	e0 63 30 00 	l.add r3,r3,r6
*
* Returns    :  OK if set pin multi-select succeeded, others if failed.
*********************************************************************************************************
*/
s32 pin_set_multi_sel(u32 pin_grp, u32 pin_num, u32 multi_sel)
{
    486c:	9c 21 ff f8 	l.addi r1,r1,0xfffffff8
	volatile u32 *addr;
	volatile u32 value;

	/*set multi-select */
	addr = PIN_REG_CFG(pin_grp, pin_num);
    4870:	b8 63 00 02 	l.slli r3,r3,0x2
	value = *addr;
	value &= ~(0x7 << ((pin_num & 0x7) * 4));
    4874:	b8 84 00 02 	l.slli r4,r4,0x2
	value |= (multi_sel << ((pin_num & 0x7) * 4));
	*addr = value;

	return OK;
}
    4878:	9d 60 00 00 	l.addi r11,r0,0x0
	volatile u32 *addr;
	volatile u32 value;

	/*set multi-select */
	addr = PIN_REG_CFG(pin_grp, pin_num);
	value = *addr;
    487c:	84 c3 00 00 	l.lwz r6,0x0(r3)
    4880:	d4 01 30 00 	l.sw 0x0(r1),r6
	value &= ~(0x7 << ((pin_num & 0x7) * 4));
    4884:	9c c0 00 07 	l.addi r6,r0,0x7
    4888:	84 e1 00 00 	l.lwz r7,0x0(r1)
    488c:	e0 c6 20 08 	l.sll r6,r6,r4
	value |= (multi_sel << ((pin_num & 0x7) * 4));
    4890:	e0 85 20 08 	l.sll r4,r5,r4
	volatile u32 value;

	/*set multi-select */
	addr = PIN_REG_CFG(pin_grp, pin_num);
	value = *addr;
	value &= ~(0x7 << ((pin_num & 0x7) * 4));
    4894:	ac c6 ff ff 	l.xori r6,r6,0xffffffff
    4898:	e0 c6 38 03 	l.and r6,r6,r7
    489c:	d4 01 30 00 	l.sw 0x0(r1),r6
	value |= (multi_sel << ((pin_num & 0x7) * 4));
    48a0:	84 c1 00 00 	l.lwz r6,0x0(r1)
    48a4:	e0 84 30 04 	l.or r4,r4,r6
    48a8:	d4 01 20 00 	l.sw 0x0(r1),r4
	*addr = value;
    48ac:	84 81 00 00 	l.lwz r4,0x0(r1)
    48b0:	d4 03 20 00 	l.sw 0x0(r3),r4

	return OK;
}
    48b4:	9c 21 00 08 	l.addi r1,r1,0x8
    48b8:	44 00 48 00 	l.jr r9
    48bc:	84 41 ff fc 	l.lwz r2,0xfffffffc(r1)

000048c0 <pin_set_pull>:
{
	volatile u32 *addr;
	volatile u32 value;

	/*set pull status */
	addr = PIN_REG_PULL(pin_grp, pin_num);
    48c0:	b8 c3 00 03 	l.slli r6,r3,0x3
*
* Returns    :  OK if set pin pull succeeded, others if failed.
*********************************************************************************************************
*/
s32 pin_set_pull(u32 pin_grp, u32 pin_num, u32 pull)
{
    48c4:	d7 e1 17 fc 	l.sw 0xfffffffc(r1),r2
	volatile u32 *addr;
	volatile u32 value;

	/*set pull status */
	addr = PIN_REG_PULL(pin_grp, pin_num);
    48c8:	18 40 01 c0 	l.movhi r2,0x1c0
    48cc:	e0 66 18 00 	l.add r3,r6,r3
    48d0:	a8 42 87 fe 	l.ori r2,r2,0x87fe
    48d4:	b8 c4 00 44 	l.srli r6,r4,0x4
    48d8:	e0 63 10 00 	l.add r3,r3,r2
*
* Returns    :  OK if set pin pull succeeded, others if failed.
*********************************************************************************************************
*/
s32 pin_set_pull(u32 pin_grp, u32 pin_num, u32 pull)
{
    48dc:	9c 21 ff f8 	l.addi r1,r1,0xfffffff8
	volatile u32 *addr;
	volatile u32 value;

	/*set pull status */
	addr = PIN_REG_PULL(pin_grp, pin_num);
    48e0:	e0 63 30 00 	l.add r3,r3,r6
	value = *addr;
	value &= ~(0x3 << ((pin_num & 0xf) * 2));
    48e4:	a4 84 00 0f 	l.andi r4,r4,0xf
{
	volatile u32 *addr;
	volatile u32 value;

	/*set pull status */
	addr = PIN_REG_PULL(pin_grp, pin_num);
    48e8:	b8 63 00 02 	l.slli r3,r3,0x2
	value = *addr;
	value &= ~(0x3 << ((pin_num & 0xf) * 2));
    48ec:	e0 84 20 00 	l.add r4,r4,r4
	value |= (pull << ((pin_num & 0xf) * 2));

	*addr = value;

	return OK;
}
    48f0:	9d 60 00 00 	l.addi r11,r0,0x0
	volatile u32 *addr;
	volatile u32 value;

	/*set pull status */
	addr = PIN_REG_PULL(pin_grp, pin_num);
	value = *addr;
    48f4:	84 c3 00 00 	l.lwz r6,0x0(r3)
    48f8:	d4 01 30 00 	l.sw 0x0(r1),r6
	value &= ~(0x3 << ((pin_num & 0xf) * 2));
    48fc:	9c c0 00 03 	l.addi r6,r0,0x3
    4900:	84 e1 00 00 	l.lwz r7,0x0(r1)
    4904:	e0 c6 20 08 	l.sll r6,r6,r4
	value |= (pull << ((pin_num & 0xf) * 2));
    4908:	e0 85 20 08 	l.sll r4,r5,r4
	volatile u32 value;

	/*set pull status */
	addr = PIN_REG_PULL(pin_grp, pin_num);
	value = *addr;
	value &= ~(0x3 << ((pin_num & 0xf) * 2));
    490c:	ac c6 ff ff 	l.xori r6,r6,0xffffffff
    4910:	e0 c6 38 03 	l.and r6,r6,r7
    4914:	d4 01 30 00 	l.sw 0x0(r1),r6
	value |= (pull << ((pin_num & 0xf) * 2));
    4918:	84 c1 00 00 	l.lwz r6,0x0(r1)
    491c:	e0 84 30 04 	l.or r4,r4,r6
    4920:	d4 01 20 00 	l.sw 0x0(r1),r4

	*addr = value;
    4924:	84 81 00 00 	l.lwz r4,0x0(r1)
    4928:	d4 03 20 00 	l.sw 0x0(r3),r4

	return OK;
}
    492c:	9c 21 00 08 	l.addi r1,r1,0x8
    4930:	44 00 48 00 	l.jr r9
    4934:	84 41 ff fc 	l.lwz r2,0xfffffffc(r1)

00004938 <pin_set_drive>:
{
	volatile u32 *addr;
	volatile u32 value;

	/*set drive level */
	addr = PIN_REG_DLEVEL(pin_grp, pin_num);
    4938:	b8 c3 00 03 	l.slli r6,r3,0x3
*
* Returns    :  OK if set pin drive succeeded, others if failed.
*********************************************************************************************************
*/
s32 pin_set_drive(u32 pin_grp, u32 pin_num, u32 drive)
{
    493c:	d7 e1 17 fc 	l.sw 0xfffffffc(r1),r2
	volatile u32 *addr;
	volatile u32 value;

	/*set drive level */
	addr = PIN_REG_DLEVEL(pin_grp, pin_num);
    4940:	18 40 01 c0 	l.movhi r2,0x1c0
    4944:	e0 66 18 00 	l.add r3,r6,r3
    4948:	a8 42 87 fc 	l.ori r2,r2,0x87fc
    494c:	b8 c4 00 44 	l.srli r6,r4,0x4
    4950:	e0 63 10 00 	l.add r3,r3,r2
*
* Returns    :  OK if set pin drive succeeded, others if failed.
*********************************************************************************************************
*/
s32 pin_set_drive(u32 pin_grp, u32 pin_num, u32 drive)
{
    4954:	9c 21 ff f8 	l.addi r1,r1,0xfffffff8
	volatile u32 *addr;
	volatile u32 value;

	/*set drive level */
	addr = PIN_REG_DLEVEL(pin_grp, pin_num);
    4958:	e0 63 30 00 	l.add r3,r3,r6
	value = *addr;
	value &= ~(0x3 << ((pin_num & 0xf) * 2));
    495c:	a4 84 00 0f 	l.andi r4,r4,0xf
{
	volatile u32 *addr;
	volatile u32 value;

	/*set drive level */
	addr = PIN_REG_DLEVEL(pin_grp, pin_num);
    4960:	b8 63 00 02 	l.slli r3,r3,0x2
	value = *addr;
	value &= ~(0x3 << ((pin_num & 0xf) * 2));
    4964:	e0 84 20 00 	l.add r4,r4,r4
	value |= (drive << ((pin_num & 0xf) * 2));

	*addr = value;

	return OK;
}
    4968:	9d 60 00 00 	l.addi r11,r0,0x0
	volatile u32 *addr;
	volatile u32 value;

	/*set drive level */
	addr = PIN_REG_DLEVEL(pin_grp, pin_num);
	value = *addr;
    496c:	84 c3 00 00 	l.lwz r6,0x0(r3)
    4970:	d4 01 30 00 	l.sw 0x0(r1),r6
	value &= ~(0x3 << ((pin_num & 0xf) * 2));
    4974:	9c c0 00 03 	l.addi r6,r0,0x3
    4978:	84 e1 00 00 	l.lwz r7,0x0(r1)
    497c:	e0 c6 20 08 	l.sll r6,r6,r4
	value |= (drive << ((pin_num & 0xf) * 2));
    4980:	e0 85 20 08 	l.sll r4,r5,r4
	volatile u32 value;

	/*set drive level */
	addr = PIN_REG_DLEVEL(pin_grp, pin_num);
	value = *addr;
	value &= ~(0x3 << ((pin_num & 0xf) * 2));
    4984:	ac c6 ff ff 	l.xori r6,r6,0xffffffff
    4988:	e0 c6 38 03 	l.and r6,r6,r7
    498c:	d4 01 30 00 	l.sw 0x0(r1),r6
	value |= (drive << ((pin_num & 0xf) * 2));
    4990:	84 c1 00 00 	l.lwz r6,0x0(r1)
    4994:	e0 84 30 04 	l.or r4,r4,r6
    4998:	d4 01 20 00 	l.sw 0x0(r1),r4

	*addr = value;
    499c:	84 81 00 00 	l.lwz r4,0x0(r1)
    49a0:	d4 03 20 00 	l.sw 0x0(r3),r4

	return OK;
}
    49a4:	9c 21 00 08 	l.addi r1,r1,0x8
    49a8:	44 00 48 00 	l.jr r9
    49ac:	84 41 ff fc 	l.lwz r2,0xfffffffc(r1)

000049b0 <pin_write_data>:
{
	volatile u32 *addr;
	volatile u32 value;

	/*write data */
	addr = PIN_REG_DATA(pin_grp);
    49b0:	b8 c3 00 02 	l.slli r6,r3,0x2
    49b4:	b8 63 00 05 	l.slli r3,r3,0x5
*
* Returns    :  OK if write pin data succeeded, others if failed.
*********************************************************************************************************
*/
s32 pin_write_data(u32 pin_grp, u32 pin_num, u32 data)
{
    49b8:	d7 e1 17 fc 	l.sw 0xfffffffc(r1),r2
	volatile u32 *addr;
	volatile u32 value;

	/*write data */
	addr = PIN_REG_DATA(pin_grp);
    49bc:	18 40 07 02 	l.movhi r2,0x702
    49c0:	e0 66 18 00 	l.add r3,r6,r3
    49c4:	a8 42 1f ec 	l.ori r2,r2,0x1fec
*
* Returns    :  OK if write pin data succeeded, others if failed.
*********************************************************************************************************
*/
s32 pin_write_data(u32 pin_grp, u32 pin_num, u32 data)
{
    49c8:	9c 21 ff f8 	l.addi r1,r1,0xfffffff8
	volatile u32 *addr;
	volatile u32 value;

	/*write data */
	addr = PIN_REG_DATA(pin_grp);
    49cc:	e0 63 10 00 	l.add r3,r3,r2
	value = *addr;
	value &= ~(0x1 << pin_num);
	value |= ((data & 0x1) << pin_num);
    49d0:	a4 a5 00 01 	l.andi r5,r5,0x1
	volatile u32 *addr;
	volatile u32 value;

	/*write data */
	addr = PIN_REG_DATA(pin_grp);
	value = *addr;
    49d4:	84 c3 00 00 	l.lwz r6,0x0(r3)
	value |= ((data & 0x1) << pin_num);

	*addr = value;

	return OK;
}
    49d8:	9d 60 00 00 	l.addi r11,r0,0x0
	volatile u32 *addr;
	volatile u32 value;

	/*write data */
	addr = PIN_REG_DATA(pin_grp);
	value = *addr;
    49dc:	d4 01 30 00 	l.sw 0x0(r1),r6
	value &= ~(0x1 << pin_num);
    49e0:	9c c0 00 01 	l.addi r6,r0,0x1
    49e4:	84 e1 00 00 	l.lwz r7,0x0(r1)
    49e8:	e0 c6 20 08 	l.sll r6,r6,r4
	value |= ((data & 0x1) << pin_num);
    49ec:	e0 85 20 08 	l.sll r4,r5,r4
	volatile u32 value;

	/*write data */
	addr = PIN_REG_DATA(pin_grp);
	value = *addr;
	value &= ~(0x1 << pin_num);
    49f0:	ac c6 ff ff 	l.xori r6,r6,0xffffffff
    49f4:	e0 c6 38 03 	l.and r6,r6,r7
    49f8:	d4 01 30 00 	l.sw 0x0(r1),r6
	value |= ((data & 0x1) << pin_num);
    49fc:	84 c1 00 00 	l.lwz r6,0x0(r1)
    4a00:	e0 84 30 04 	l.or r4,r4,r6
    4a04:	d4 01 20 00 	l.sw 0x0(r1),r4

	*addr = value;
    4a08:	84 81 00 00 	l.lwz r4,0x0(r1)
    4a0c:	d4 03 20 00 	l.sw 0x0(r3),r4

	return OK;
}
    4a10:	9c 21 00 08 	l.addi r1,r1,0x8
    4a14:	44 00 48 00 	l.jr r9
    4a18:	84 41 ff fc 	l.lwz r2,0xfffffffc(r1)

00004a1c <pin_read_data>:
u32 pin_read_data(u32 pin_grp, u32 pin_num)
{
	volatile u32 value;

	/*read data */
	value = PIN_REG_DATA_VALUE(pin_grp);
    4a1c:	b8 a3 00 02 	l.slli r5,r3,0x2
    4a20:	b8 63 00 05 	l.slli r3,r3,0x5
*
* Returns    :  the data of the specific pin.
*********************************************************************************************************
*/
u32 pin_read_data(u32 pin_grp, u32 pin_num)
{
    4a24:	d7 e1 17 fc 	l.sw 0xfffffffc(r1),r2
	volatile u32 value;

	/*read data */
	value = PIN_REG_DATA_VALUE(pin_grp);
    4a28:	18 40 07 02 	l.movhi r2,0x702
    4a2c:	e0 65 18 00 	l.add r3,r5,r3
    4a30:	a8 42 1f ec 	l.ori r2,r2,0x1fec
*
* Returns    :  the data of the specific pin.
*********************************************************************************************************
*/
u32 pin_read_data(u32 pin_grp, u32 pin_num)
{
    4a34:	9c 21 ff f8 	l.addi r1,r1,0xfffffff8
	volatile u32 value;

	/*read data */
	value = PIN_REG_DATA_VALUE(pin_grp);
    4a38:	e0 63 10 00 	l.add r3,r3,r2
    4a3c:	84 63 00 00 	l.lwz r3,0x0(r3)
    4a40:	d4 01 18 00 	l.sw 0x0(r1),r3

	return ((value >> pin_num) & 0x1);
    4a44:	84 61 00 00 	l.lwz r3,0x0(r1)
}
    4a48:	9c 21 00 08 	l.addi r1,r1,0x8
	volatile u32 value;

	/*read data */
	value = PIN_REG_DATA_VALUE(pin_grp);

	return ((value >> pin_num) & 0x1);
    4a4c:	e0 83 20 48 	l.srl r4,r3,r4
}
    4a50:	84 41 ff fc 	l.lwz r2,0xfffffffc(r1)
    4a54:	44 00 48 00 	l.jr r9
    4a58:	a5 64 00 01 	l.andi r11,r4,0x1

00004a5c <is_wanted_gpio_int>:

/*
 * NOTE:gpio_int_en is from bit0, if used for PM, should right shift 12
 */
u32 is_wanted_gpio_int(u32 pin_grp, u32 gpio_int_en)
{
    4a5c:	d7 e1 17 fc 	l.sw 0xfffffffc(r1),r2
	volatile u32 value;

	value = readl(PIN_REG_INT_STAT(pin_grp));
    4a60:	18 40 07 02 	l.movhi r2,0x702
    4a64:	b8 63 00 05 	l.slli r3,r3,0x5
    4a68:	a8 42 21 f4 	l.ori r2,r2,0x21f4

/*
 * NOTE:gpio_int_en is from bit0, if used for PM, should right shift 12
 */
u32 is_wanted_gpio_int(u32 pin_grp, u32 gpio_int_en)
{
    4a6c:	9c 21 ff f8 	l.addi r1,r1,0xfffffff8
	volatile u32 value;

	value = readl(PIN_REG_INT_STAT(pin_grp));
    4a70:	e0 63 10 00 	l.add r3,r3,r2
    4a74:	84 63 00 00 	l.lwz r3,0x0(r3)
    4a78:	d4 01 18 00 	l.sw 0x0(r1),r3

	return (value & gpio_int_en);
    4a7c:	85 61 00 00 	l.lwz r11,0x0(r1)
}
    4a80:	9c 21 00 08 	l.addi r1,r1,0x8
    4a84:	e1 64 58 03 	l.and r11,r4,r11
    4a88:	44 00 48 00 	l.jr r9
    4a8c:	84 41 ff fc 	l.lwz r2,0xfffffffc(r1)

00004a90 <pin_set_int_trigger_mode>:
*
* Returns    :  OK if set trigger mode succeeded, others if failed.
*********************************************************************************************************
*/
s32 pin_set_int_trigger_mode(u32 pin_grp, u32 pin_num, u32 mode)
{
    4a90:	d7 e1 17 fc 	l.sw 0xfffffffc(r1),r2


static s32 pin_pin2eint(u32 pin_grp, u32 pin_num, u32 *eint_grp,
			u32 *eint_num)
{
	switch (pin_grp) {
    4a94:	9c c3 ff ff 	l.addi r6,r3,0xffffffff
    4a98:	bc 46 00 01 	l.sfgtui r6,0x1
    4a9c:	0c 00 00 04 	l.bnf 4aac <pin_set_int_trigger_mode+0x1c>
    4aa0:	9c 21 ff f8 	l.addi r1,r1,0xfffffff8
		*eint_num = pin_num;
		return OK;
	}
	/*invalid pin group number */
	*eint_grp = 0xff;
	*eint_num = 0xff;
    4aa4:	9c 80 00 ff 	l.addi r4,r0,0xff
		*eint_grp = pin_grp;
		*eint_num = pin_num;
		return OK;
	}
	/*invalid pin group number */
	*eint_grp = 0xff;
    4aa8:	a8 64 00 00 	l.ori r3,r4,0x0

	/*convert pin number to eint number */
	pin_pin2eint(pin_grp, pin_num, &eint_grp, &eint_num);

	/*set eint pin trigger mode */
	addr = PIN_REG_INT_CFG(eint_grp, eint_num);
    4aac:	18 40 00 38 	l.movhi r2,0x38
    4ab0:	b8 c4 00 43 	l.srli r6,r4,0x3
    4ab4:	a8 42 10 ff 	l.ori r2,r2,0x10ff
	value = *addr;
	value &= ~(0x7 << ((eint_num & 0x7) * 4));
    4ab8:	a4 84 00 07 	l.andi r4,r4,0x7

	/*convert pin number to eint number */
	pin_pin2eint(pin_grp, pin_num, &eint_grp, &eint_num);

	/*set eint pin trigger mode */
	addr = PIN_REG_INT_CFG(eint_grp, eint_num);
    4abc:	e0 63 10 00 	l.add r3,r3,r2
    4ac0:	9c c6 00 80 	l.addi r6,r6,0x80
    4ac4:	b8 63 00 03 	l.slli r3,r3,0x3
	value = *addr;
	value &= ~(0x7 << ((eint_num & 0x7) * 4));
    4ac8:	b8 84 00 02 	l.slli r4,r4,0x2
	value |= (mode << ((eint_num & 0x7) * 4));
	*addr = value;

	return OK;
}
    4acc:	9d 60 00 00 	l.addi r11,r0,0x0

	/*convert pin number to eint number */
	pin_pin2eint(pin_grp, pin_num, &eint_grp, &eint_num);

	/*set eint pin trigger mode */
	addr = PIN_REG_INT_CFG(eint_grp, eint_num);
    4ad0:	e0 66 18 00 	l.add r3,r6,r3
    4ad4:	b8 63 00 02 	l.slli r3,r3,0x2
	value = *addr;
    4ad8:	84 c3 00 00 	l.lwz r6,0x0(r3)
    4adc:	d4 01 30 00 	l.sw 0x0(r1),r6
	value &= ~(0x7 << ((eint_num & 0x7) * 4));
    4ae0:	9c c0 00 07 	l.addi r6,r0,0x7
    4ae4:	84 e1 00 00 	l.lwz r7,0x0(r1)
    4ae8:	e0 c6 20 08 	l.sll r6,r6,r4
	value |= (mode << ((eint_num & 0x7) * 4));
    4aec:	e0 85 20 08 	l.sll r4,r5,r4
	pin_pin2eint(pin_grp, pin_num, &eint_grp, &eint_num);

	/*set eint pin trigger mode */
	addr = PIN_REG_INT_CFG(eint_grp, eint_num);
	value = *addr;
	value &= ~(0x7 << ((eint_num & 0x7) * 4));
    4af0:	ac c6 ff ff 	l.xori r6,r6,0xffffffff
    4af4:	e0 c6 38 03 	l.and r6,r6,r7
    4af8:	d4 01 30 00 	l.sw 0x0(r1),r6
	value |= (mode << ((eint_num & 0x7) * 4));
    4afc:	84 c1 00 00 	l.lwz r6,0x0(r1)
    4b00:	e0 84 30 04 	l.or r4,r4,r6
    4b04:	d4 01 20 00 	l.sw 0x0(r1),r4
	*addr = value;
    4b08:	84 81 00 00 	l.lwz r4,0x0(r1)
    4b0c:	d4 03 20 00 	l.sw 0x0(r3),r4

	return OK;
}
    4b10:	9c 21 00 08 	l.addi r1,r1,0x8
    4b14:	44 00 48 00 	l.jr r9
    4b18:	84 41 ff fc 	l.lwz r2,0xfffffffc(r1)

00004b1c <timer_hosc_onoff_cb>:
	}
	return FALSE;
}

s32 timer_hosc_onoff_cb(u32 message, u32 aux)
{
    4b1c:	d7 e1 17 ec 	l.sw 0xffffffec(r1),r2
#ifdef CFG_FPGA_PLATFORM
	return OK;
#else
	u32 index;

	if (timer_lock)
    4b20:	18 40 00 01 	l.movhi r2,0x1
	}
	return FALSE;
}

s32 timer_hosc_onoff_cb(u32 message, u32 aux)
{
    4b24:	d7 e1 87 f4 	l.sw 0xfffffff4(r1),r16
#ifdef CFG_FPGA_PLATFORM
	return OK;
#else
	u32 index;

	if (timer_lock)
    4b28:	a8 42 32 f4 	l.ori r2,r2,0x32f4
	}
	return FALSE;
}

s32 timer_hosc_onoff_cb(u32 message, u32 aux)
{
    4b2c:	d7 e1 4f fc 	l.sw 0xfffffffc(r1),r9
    4b30:	d7 e1 77 f0 	l.sw 0xfffffff0(r1),r14
    4b34:	d7 e1 97 f8 	l.sw 0xfffffff8(r1),r18
#ifdef CFG_FPGA_PLATFORM
	return OK;
#else
	u32 index;

	if (timer_lock)
    4b38:	86 02 00 00 	l.lwz r16,0x0(r2)
	}
	return FALSE;
}

s32 timer_hosc_onoff_cb(u32 message, u32 aux)
{
    4b3c:	9c 21 ff ec 	l.addi r1,r1,0xffffffec
#ifdef CFG_FPGA_PLATFORM
	return OK;
#else
	u32 index;

	if (timer_lock)
    4b40:	bc 30 00 00 	l.sfnei r16,0x0
    4b44:	10 00 00 43 	l.bf 4c50 <timer_hosc_onoff_cb+0x134>
    4b48:	9d 60 ff f3 	l.addi r11,r0,0xfffffff3
		return -EACCES;

	switch (message) {
    4b4c:	bc 03 00 00 	l.sfeqi r3,0x0
    4b50:	10 00 00 22 	l.bf 4bd8 <timer_hosc_onoff_cb+0xbc>
    4b54:	18 80 00 01 	l.movhi r4,0x1
    4b58:	bc 03 00 01 	l.sfeqi r3,0x1
    4b5c:	0c 00 00 3c 	l.bnf 4c4c <timer_hosc_onoff_cb+0x130>
    4b60:	19 c0 00 01 	l.movhi r14,0x1
			 */
			INF("24m hosc will power-off notify\n");
			for (index = 0; index < TIMERC_TIMERS_NUMBER; index++) {
				timers[index].pregs->control &= ~(0x3 << 2);
				timers[index].pregs->control |= (0x0 << 2);	/* source clock = 32k */
				timers[index].ms_ticks = 32;	/* 32 */
    4b64:	9e 40 00 20 	l.addi r18,r0,0x20
			 * 24m hosc will power-off,
			 * timer switch clock source to 32k losc.
			 */
			INF("24m hosc will power-off notify\n");
			for (index = 0; index < TIMERC_TIMERS_NUMBER; index++) {
				timers[index].pregs->control &= ~(0x3 << 2);
    4b68:	a9 ce 32 f8 	l.ori r14,r14,0x32f8
				timers[index].pregs->control |= (0x0 << 2);	/* source clock = 32k */
				timers[index].ms_ticks = 32;	/* 32 */
				timers[index].pregs->interval_value = \
					timers[index].pregs->interval_value / (24000 / 32);
    4b6c:	9c 80 02 ee 	l.addi r4,r0,0x2ee
			 * 24m hosc will power-off,
			 * timer switch clock source to 32k losc.
			 */
			INF("24m hosc will power-off notify\n");
			for (index = 0; index < TIMERC_TIMERS_NUMBER; index++) {
				timers[index].pregs->control &= ~(0x3 << 2);
    4b70:	84 4e 00 18 	l.lwz r2,0x18(r14)
    4b74:	84 62 00 00 	l.lwz r3,0x0(r2)
    4b78:	e0 63 58 03 	l.and r3,r3,r11
    4b7c:	d4 02 18 00 	l.sw 0x0(r2),r3
				timers[index].pregs->control |= (0x0 << 2);	/* source clock = 32k */
    4b80:	84 62 00 00 	l.lwz r3,0x0(r2)
    4b84:	d4 02 18 00 	l.sw 0x0(r2),r3
				timers[index].ms_ticks = 32;	/* 32 */
    4b88:	d4 0e 90 0c 	l.sw 0xc(r14),r18
				timers[index].pregs->interval_value = \
					timers[index].pregs->interval_value / (24000 / 32);
    4b8c:	84 62 00 04 	l.lwz r3,0x4(r2)
    4b90:	04 00 1d 9e 	l.jal c208 <__udivsi3>
    4b94:	15 00 00 00 	l.nop 0x0
			INF("24m hosc will power-off notify\n");
			for (index = 0; index < TIMERC_TIMERS_NUMBER; index++) {
				timers[index].pregs->control &= ~(0x3 << 2);
				timers[index].pregs->control |= (0x0 << 2);	/* source clock = 32k */
				timers[index].ms_ticks = 32;	/* 32 */
				timers[index].pregs->interval_value = \
    4b98:	d4 02 58 04 	l.sw 0x4(r2),r11
			 * 24m hosc will power-off,
			 * timer switch clock source to 32k losc.
			 */
			INF("24m hosc will power-off notify\n");
			for (index = 0; index < TIMERC_TIMERS_NUMBER; index++) {
				timers[index].pregs->control &= ~(0x3 << 2);
    4b9c:	84 4e 00 34 	l.lwz r2,0x34(r14)
    4ba0:	9c e0 ff f3 	l.addi r7,r0,0xfffffff3
    4ba4:	84 62 00 00 	l.lwz r3,0x0(r2)
				timers[index].pregs->control |= (0x0 << 2);	/* source clock = 32k */
				timers[index].ms_ticks = 32;	/* 32 */
				timers[index].pregs->interval_value = \
					timers[index].pregs->interval_value / (24000 / 32);
    4ba8:	9c 80 02 ee 	l.addi r4,r0,0x2ee
			 * 24m hosc will power-off,
			 * timer switch clock source to 32k losc.
			 */
			INF("24m hosc will power-off notify\n");
			for (index = 0; index < TIMERC_TIMERS_NUMBER; index++) {
				timers[index].pregs->control &= ~(0x3 << 2);
    4bac:	e0 63 38 03 	l.and r3,r3,r7
    4bb0:	d4 02 18 00 	l.sw 0x0(r2),r3
				timers[index].pregs->control |= (0x0 << 2);	/* source clock = 32k */
    4bb4:	84 62 00 00 	l.lwz r3,0x0(r2)
    4bb8:	d4 02 18 00 	l.sw 0x0(r2),r3
				timers[index].ms_ticks = 32;	/* 32 */
    4bbc:	d4 0e 90 28 	l.sw 0x28(r14),r18
				timers[index].pregs->interval_value = \
					timers[index].pregs->interval_value / (24000 / 32);
    4bc0:	84 62 00 04 	l.lwz r3,0x4(r2)
    4bc4:	04 00 1d 91 	l.jal c208 <__udivsi3>
    4bc8:	15 00 00 00 	l.nop 0x0
			INF("24m hosc will power-off notify\n");
			for (index = 0; index < TIMERC_TIMERS_NUMBER; index++) {
				timers[index].pregs->control &= ~(0x3 << 2);
				timers[index].pregs->control |= (0x0 << 2);	/* source clock = 32k */
				timers[index].ms_ticks = 32;	/* 32 */
				timers[index].pregs->interval_value = \
    4bcc:	d4 02 58 04 	l.sw 0x4(r2),r11
					timers[index].pregs->interval_value / (24000 / 32);
			}
			return OK;
    4bd0:	00 00 00 20 	l.j 4c50 <timer_hosc_onoff_cb+0x134>
    4bd4:	a9 70 00 00 	l.ori r11,r16,0x0
			 * timer swith source clock to 24m hosc.
			 */
			INF("24m hosc power-on ready notify\n");
			for (index = 0; index < TIMERC_TIMERS_NUMBER; index++) {
				timers[index].pregs->interval_value = \
					timers[index].pregs->interval_value * (24000 / 32);
    4bd8:	9c c0 02 ee 	l.addi r6,r0,0x2ee
    4bdc:	a8 84 32 f8 	l.ori r4,r4,0x32f8
				timers[index].pregs->control &= ~(0x3 << 2);
    4be0:	9c e0 ff f3 	l.addi r7,r0,0xfffffff3
			 * timer swith source clock to 24m hosc.
			 */
			INF("24m hosc power-on ready notify\n");
			for (index = 0; index < TIMERC_TIMERS_NUMBER; index++) {
				timers[index].pregs->interval_value = \
					timers[index].pregs->interval_value * (24000 / 32);
    4be4:	84 44 00 18 	l.lwz r2,0x18(r4)
				timers[index].pregs->control &= ~(0x3 << 2);
				timers[index].pregs->control |= (0x1 << 2);	/* source clock = 24M */
				timers[index].ms_ticks = 24 * 1000;	/* 24k */
			}
			return OK;
    4be8:	a9 63 00 00 	l.ori r11,r3,0x0
			 * timer swith source clock to 24m hosc.
			 */
			INF("24m hosc power-on ready notify\n");
			for (index = 0; index < TIMERC_TIMERS_NUMBER; index++) {
				timers[index].pregs->interval_value = \
					timers[index].pregs->interval_value * (24000 / 32);
    4bec:	84 a2 00 04 	l.lwz r5,0x4(r2)
    4bf0:	e0 a5 33 06 	l.mul r5,r5,r6
			 * 24m hosc power-on already,
			 * timer swith source clock to 24m hosc.
			 */
			INF("24m hosc power-on ready notify\n");
			for (index = 0; index < TIMERC_TIMERS_NUMBER; index++) {
				timers[index].pregs->interval_value = \
    4bf4:	d4 02 28 04 	l.sw 0x4(r2),r5
					timers[index].pregs->interval_value * (24000 / 32);
				timers[index].pregs->control &= ~(0x3 << 2);
    4bf8:	84 a2 00 00 	l.lwz r5,0x0(r2)
    4bfc:	e0 a5 38 03 	l.and r5,r5,r7
    4c00:	d4 02 28 00 	l.sw 0x0(r2),r5
				timers[index].pregs->control |= (0x1 << 2);	/* source clock = 24M */
    4c04:	84 a2 00 00 	l.lwz r5,0x0(r2)
    4c08:	a8 a5 00 04 	l.ori r5,r5,0x4
    4c0c:	d4 02 28 00 	l.sw 0x0(r2),r5
			 * timer swith source clock to 24m hosc.
			 */
			INF("24m hosc power-on ready notify\n");
			for (index = 0; index < TIMERC_TIMERS_NUMBER; index++) {
				timers[index].pregs->interval_value = \
					timers[index].pregs->interval_value * (24000 / 32);
    4c10:	84 44 00 34 	l.lwz r2,0x34(r4)
				timers[index].pregs->control &= ~(0x3 << 2);
				timers[index].pregs->control |= (0x1 << 2);	/* source clock = 24M */
				timers[index].ms_ticks = 24 * 1000;	/* 24k */
    4c14:	9c a0 5d c0 	l.addi r5,r0,0x5dc0
			 * timer swith source clock to 24m hosc.
			 */
			INF("24m hosc power-on ready notify\n");
			for (index = 0; index < TIMERC_TIMERS_NUMBER; index++) {
				timers[index].pregs->interval_value = \
					timers[index].pregs->interval_value * (24000 / 32);
    4c18:	84 e2 00 04 	l.lwz r7,0x4(r2)
				timers[index].pregs->control &= ~(0x3 << 2);
				timers[index].pregs->control |= (0x1 << 2);	/* source clock = 24M */
				timers[index].ms_ticks = 24 * 1000;	/* 24k */
    4c1c:	d4 04 28 0c 	l.sw 0xc(r4),r5
			 * timer swith source clock to 24m hosc.
			 */
			INF("24m hosc power-on ready notify\n");
			for (index = 0; index < TIMERC_TIMERS_NUMBER; index++) {
				timers[index].pregs->interval_value = \
					timers[index].pregs->interval_value * (24000 / 32);
    4c20:	e0 c7 33 06 	l.mul r6,r7,r6
			 * 24m hosc power-on already,
			 * timer swith source clock to 24m hosc.
			 */
			INF("24m hosc power-on ready notify\n");
			for (index = 0; index < TIMERC_TIMERS_NUMBER; index++) {
				timers[index].pregs->interval_value = \
    4c24:	d4 02 30 04 	l.sw 0x4(r2),r6
					timers[index].pregs->interval_value * (24000 / 32);
				timers[index].pregs->control &= ~(0x3 << 2);
    4c28:	9c e0 ff f3 	l.addi r7,r0,0xfffffff3
    4c2c:	84 c2 00 00 	l.lwz r6,0x0(r2)
    4c30:	e0 c6 38 03 	l.and r6,r6,r7
    4c34:	d4 02 30 00 	l.sw 0x0(r2),r6
				timers[index].pregs->control |= (0x1 << 2);	/* source clock = 24M */
    4c38:	84 c2 00 00 	l.lwz r6,0x0(r2)
    4c3c:	a8 c6 00 04 	l.ori r6,r6,0x4
    4c40:	d4 02 30 00 	l.sw 0x0(r2),r6
				timers[index].ms_ticks = 24 * 1000;	/* 24k */
    4c44:	00 00 00 03 	l.j 4c50 <timer_hosc_onoff_cb+0x134>
    4c48:	d4 04 28 28 	l.sw 0x28(r4),r5
	default:
		{
			break;
		}
	}
	return -ESRCH;
    4c4c:	9d 60 ff fd 	l.addi r11,r0,0xfffffffd
#endif
}
    4c50:	9c 21 00 14 	l.addi r1,r1,0x14
    4c54:	85 21 ff fc 	l.lwz r9,0xfffffffc(r1)
    4c58:	84 41 ff ec 	l.lwz r2,0xffffffec(r1)
    4c5c:	85 c1 ff f0 	l.lwz r14,0xfffffff0(r1)
    4c60:	86 01 ff f4 	l.lwz r16,0xfffffff4(r1)
    4c64:	44 00 48 00 	l.jr r9
    4c68:	86 41 ff f8 	l.lwz r18,0xfffffff8(r1)

00004c6c <timer_isr>:
*
* Returns    :  TRUE if process timer interrupt succeeded, others if failed.
*********************************************************************************************************
*/
s32 timer_isr(void *parg)
{
    4c6c:	d7 e1 17 ec 	l.sw 0xffffffec(r1),r2
    4c70:	a8 43 00 00 	l.ori r2,r3,0x0
	struct timer *ptimer = (struct timer *)parg;

	if (timer_lock)
    4c74:	18 60 00 01 	l.movhi r3,0x1
*
* Returns    :  TRUE if process timer interrupt succeeded, others if failed.
*********************************************************************************************************
*/
s32 timer_isr(void *parg)
{
    4c78:	d7 e1 4f fc 	l.sw 0xfffffffc(r1),r9
	struct timer *ptimer = (struct timer *)parg;

	if (timer_lock)
    4c7c:	a8 63 32 f4 	l.ori r3,r3,0x32f4
*
* Returns    :  TRUE if process timer interrupt succeeded, others if failed.
*********************************************************************************************************
*/
s32 timer_isr(void *parg)
{
    4c80:	d7 e1 77 f0 	l.sw 0xfffffff0(r1),r14
    4c84:	d7 e1 87 f4 	l.sw 0xfffffff4(r1),r16
    4c88:	d7 e1 97 f8 	l.sw 0xfffffff8(r1),r18
	struct timer *ptimer = (struct timer *)parg;

	if (timer_lock)
    4c8c:	84 63 00 00 	l.lwz r3,0x0(r3)
*
* Returns    :  TRUE if process timer interrupt succeeded, others if failed.
*********************************************************************************************************
*/
s32 timer_isr(void *parg)
{
    4c90:	9c 21 ff ec 	l.addi r1,r1,0xffffffec
	struct timer *ptimer = (struct timer *)parg;

	if (timer_lock)
    4c94:	bc 23 00 00 	l.sfnei r3,0x0
    4c98:	10 00 00 1d 	l.bf 4d0c <timer_isr+0xa0>
    4c9c:	9d 60 ff f3 	l.addi r11,r0,0xfffffff3
		return -EACCES;

	/* check pending status valid or not */
	if (ptimerc_regs->irq_status & (1 << ptimer->timer_no)) {
    4ca0:	1a 40 00 01 	l.movhi r18,0x1
    4ca4:	9d c0 00 01 	l.addi r14,r0,0x1
    4ca8:	aa 52 37 30 	l.ori r18,r18,0x3730
    4cac:	85 62 00 00 	l.lwz r11,0x0(r2)
    4cb0:	84 72 00 00 	l.lwz r3,0x0(r18)
    4cb4:	e1 6e 58 08 	l.sll r11,r14,r11
    4cb8:	84 63 00 04 	l.lwz r3,0x4(r3)
    4cbc:	e1 6b 18 03 	l.and r11,r11,r3
    4cc0:	bc 0b 00 00 	l.sfeqi r11,0x0
    4cc4:	10 00 00 12 	l.bf 4d0c <timer_isr+0xa0>
    4cc8:	15 00 00 00 	l.nop 0x0
		/* process the timer handler */
		if (ptimer->phandler == NULL) {
    4ccc:	86 02 00 10 	l.lwz r16,0x10(r2)
    4cd0:	bc 30 00 00 	l.sfnei r16,0x0
    4cd4:	10 00 00 07 	l.bf 4cf0 <timer_isr+0x84>
    4cd8:	18 80 00 01 	l.movhi r4,0x1
			WRN("timer irq handler not install\n");
    4cdc:	9c 60 00 04 	l.addi r3,r0,0x4
    4ce0:	04 00 14 b6 	l.jal 9fb8 <debugger_printf>
    4ce4:	a8 84 25 74 	l.ori r4,r4,0x2574
			return FALSE;
    4ce8:	00 00 00 09 	l.j 4d0c <timer_isr+0xa0>
    4cec:	a9 70 00 00 	l.ori r11,r16,0x0
		}

		/* handler timer irq */
		ptimer->phandler(ptimer->parg);
    4cf0:	48 00 80 00 	l.jalr r16
    4cf4:	84 62 00 14 	l.lwz r3,0x14(r2)

		/* clear interrupt pending */
		ptimerc_regs->irq_status = (1 << ptimer->timer_no);
    4cf8:	84 42 00 00 	l.lwz r2,0x0(r2)
    4cfc:	84 72 00 00 	l.lwz r3,0x0(r18)
    4d00:	e0 4e 10 08 	l.sll r2,r14,r2

		return TRUE;
    4d04:	a9 6e 00 00 	l.ori r11,r14,0x0

		/* handler timer irq */
		ptimer->phandler(ptimer->parg);

		/* clear interrupt pending */
		ptimerc_regs->irq_status = (1 << ptimer->timer_no);
    4d08:	d4 03 10 04 	l.sw 0x4(r3),r2

		return TRUE;
	}
	return FALSE;
}
    4d0c:	9c 21 00 14 	l.addi r1,r1,0x14
    4d10:	85 21 ff fc 	l.lwz r9,0xfffffffc(r1)
    4d14:	84 41 ff ec 	l.lwz r2,0xffffffec(r1)
    4d18:	85 c1 ff f0 	l.lwz r14,0xfffffff0(r1)
    4d1c:	86 01 ff f4 	l.lwz r16,0xfffffff4(r1)
    4d20:	44 00 48 00 	l.jr r9
    4d24:	86 41 ff f8 	l.lwz r18,0xfffffff8(r1)

00004d28 <timer_init>:
*
* Returns    :  OK if initialize timer succeeded, others if failed.
*********************************************************************************************************
*/
s32 timer_init(void)
{
    4d28:	d7 e1 17 f8 	l.sw 0xfffffff8(r1),r2
	u32 index;

	/* initialize the pointer of timer controller registers */
	ptimerc_regs = (struct timerc_regs *)(TIMER_REG_BASE);
    4d2c:	18 40 00 01 	l.movhi r2,0x1
    4d30:	18 60 07 02 	l.movhi r3,0x702
    4d34:	a8 42 37 30 	l.ori r2,r2,0x3730
*
* Returns    :  OK if initialize timer succeeded, others if failed.
*********************************************************************************************************
*/
s32 timer_init(void)
{
    4d38:	d7 e1 4f fc 	l.sw 0xfffffffc(r1),r9
	u32 index;

	/* initialize the pointer of timer controller registers */
	ptimerc_regs = (struct timerc_regs *)(TIMER_REG_BASE);
    4d3c:	d4 02 18 00 	l.sw 0x0(r2),r3
*
* Returns    :  OK if initialize timer succeeded, others if failed.
*********************************************************************************************************
*/
s32 timer_init(void)
{
    4d40:	9c 21 ff f8 	l.addi r1,r1,0xfffffff8

	/* initialize the pointer of timer controller registers */
	ptimerc_regs = (struct timerc_regs *)(TIMER_REG_BASE);

	/* enbale timer clock gating. */
	ccu_set_mclk_onoff(CCU_MOD_CLK_R_TIMER0_1, CCU_CLK_ON);
    4d44:	9c 60 00 1f 	l.addi r3,r0,0x1f
    4d48:	04 00 33 5b 	l.jal 11ab4 <ccu_set_mclk_onoff>
    4d4c:	9c 80 00 01 	l.addi r4,r0,0x1

	/* set reset as de-assert state. */
	ccu_set_mclk_reset(CCU_MOD_CLK_R_TIMER0_1, CCU_CLK_NRESET);
    4d50:	9c 60 00 1f 	l.addi r3,r0,0x1f
    4d54:	04 00 34 da 	l.jal 120bc <ccu_set_mclk_reset>
    4d58:	9c 80 00 01 	l.addi r4,r0,0x1

	/* initialize timers */
	for (index = 0; index < TIMERC_TIMERS_NUMBER; index++) {
		timers[index].pregs = &(ptimerc_regs->timer[index]);
    4d5c:	18 80 00 01 	l.movhi r4,0x1
    4d60:	84 c2 00 00 	l.lwz r6,0x0(r2)
    4d64:	a8 84 33 10 	l.ori r4,r4,0x3310

	/* set reset as de-assert state. */
	ccu_set_mclk_reset(CCU_MOD_CLK_R_TIMER0_1, CCU_CLK_NRESET);

	/* initialize timers */
	for (index = 0; index < TIMERC_TIMERS_NUMBER; index++) {
    4d68:	9c 60 00 00 	l.addi r3,r0,0x0
		timers[index].pregs->control &= ~(0x7 << 4);
		timers[index].pregs->control |= (0x0 << 4);	/* pre-scale = 1 */
#ifdef CFG_FPGA_PLATFORM
		timers[index].ms_ticks = 32;	/* fix to 32k */
#else
		timers[index].ms_ticks = 24 * 1000;	/* 24M */
    4d6c:	9c a0 5d c0 	l.addi r5,r0,0x5dc0
	/* set reset as de-assert state. */
	ccu_set_mclk_reset(CCU_MOD_CLK_R_TIMER0_1, CCU_CLK_NRESET);

	/* initialize timers */
	for (index = 0; index < TIMERC_TIMERS_NUMBER; index++) {
		timers[index].pregs = &(ptimerc_regs->timer[index]);
    4d70:	9c 43 00 01 	l.addi r2,r3,0x1
		timers[index].pregs->control = 0;
    4d74:	9c e0 00 00 	l.addi r7,r0,0x0
	/* set reset as de-assert state. */
	ccu_set_mclk_reset(CCU_MOD_CLK_R_TIMER0_1, CCU_CLK_NRESET);

	/* initialize timers */
	for (index = 0; index < TIMERC_TIMERS_NUMBER; index++) {
		timers[index].pregs = &(ptimerc_regs->timer[index]);
    4d78:	b8 62 00 04 	l.slli r3,r2,0x4

		/*
		 * timer tick time base on ms,
		 * soucre clock = 24M, pre-scale = 1, timer source clock = 24M.
		 */
		timers[index].pregs->control &= ~(0x3 << 2);
    4d7c:	9d 00 ff f3 	l.addi r8,r0,0xfffffff3

	/* set reset as de-assert state. */
	ccu_set_mclk_reset(CCU_MOD_CLK_R_TIMER0_1, CCU_CLK_NRESET);

	/* initialize timers */
	for (index = 0; index < TIMERC_TIMERS_NUMBER; index++) {
    4d80:	bc 22 00 02 	l.sfnei r2,0x2
		timers[index].pregs = &(ptimerc_regs->timer[index]);
    4d84:	e0 66 18 00 	l.add r3,r6,r3
    4d88:	d4 04 18 00 	l.sw 0x0(r4),r3
		timers[index].pregs->control = 0;
    4d8c:	d4 03 38 00 	l.sw 0x0(r3),r7

		/*
		 * timer tick time base on ms,
		 * soucre clock = 24M, pre-scale = 1, timer source clock = 24M.
		 */
		timers[index].pregs->control &= ~(0x3 << 2);
    4d90:	84 e3 00 00 	l.lwz r7,0x0(r3)
    4d94:	e0 e7 40 03 	l.and r7,r7,r8
		timers[index].pregs->control |= (0x1 << 2);	/* source clock = 24M */
		timers[index].pregs->control &= ~(0x7 << 4);
    4d98:	9d 00 ff 8f 	l.addi r8,r0,0xffffff8f

		/*
		 * timer tick time base on ms,
		 * soucre clock = 24M, pre-scale = 1, timer source clock = 24M.
		 */
		timers[index].pregs->control &= ~(0x3 << 2);
    4d9c:	d4 03 38 00 	l.sw 0x0(r3),r7
		timers[index].pregs->control |= (0x1 << 2);	/* source clock = 24M */
    4da0:	84 e3 00 00 	l.lwz r7,0x0(r3)
    4da4:	a8 e7 00 04 	l.ori r7,r7,0x4
    4da8:	d4 03 38 00 	l.sw 0x0(r3),r7
		timers[index].pregs->control &= ~(0x7 << 4);
    4dac:	84 e3 00 00 	l.lwz r7,0x0(r3)
    4db0:	e0 e7 40 03 	l.and r7,r7,r8
    4db4:	d4 03 38 00 	l.sw 0x0(r3),r7
		timers[index].pregs->control |= (0x0 << 4);	/* pre-scale = 1 */
    4db8:	84 e3 00 00 	l.lwz r7,0x0(r3)
    4dbc:	d4 03 38 00 	l.sw 0x0(r3),r7
#ifdef CFG_FPGA_PLATFORM
		timers[index].ms_ticks = 32;	/* fix to 32k */
#else
		timers[index].ms_ticks = 24 * 1000;	/* 24M */
    4dc0:	d7 e4 2f f4 	l.sw 0xfffffff4(r4),r5

	/* set reset as de-assert state. */
	ccu_set_mclk_reset(CCU_MOD_CLK_R_TIMER0_1, CCU_CLK_NRESET);

	/* initialize timers */
	for (index = 0; index < TIMERC_TIMERS_NUMBER; index++) {
    4dc4:	a8 62 00 00 	l.ori r3,r2,0x0
    4dc8:	13 ff ff ea 	l.bf 4d70 <timer_init+0x48>
    4dcc:	9c 84 00 1c 	l.addi r4,r4,0x1c
	/*
	 * use timer[0] for system accurate delay service, tick base ms.
	 * single shot mode.
	 * by sunny at 2012-11-21 17:39:25.
	 */
	timers[0].status = TIMER_USED;
    4dd0:	18 60 00 01 	l.movhi r3,0x1
    4dd4:	9c 40 00 01 	l.addi r2,r0,0x1
    4dd8:	a8 63 32 f8 	l.ori r3,r3,0x32f8
    4ddc:	d4 03 10 04 	l.sw 0x4(r3),r2
	delay_timer = &(timers[0]);
    4de0:	18 40 00 01 	l.movhi r2,0x1
    4de4:	a8 42 37 2c 	l.ori r2,r2,0x372c
    4de8:	d4 02 18 00 	l.sw 0x0(r2),r3
	delay_timer->pregs->control |= (0x1 << 7);
    4dec:	84 63 00 18 	l.lwz r3,0x18(r3)
    4df0:	84 43 00 00 	l.lwz r2,0x0(r3)
    4df4:	a8 42 00 80 	l.ori r2,r2,0x80
    4df8:	d4 03 10 00 	l.sw 0x0(r3),r2

	/* register 24mhosc notifier call-back */
	ccu_24mhosc_reg_cb(timer_hosc_onoff_cb);
    4dfc:	18 60 00 00 	l.movhi r3,0x0
	timer_lock = 0;
    4e00:	18 40 00 01 	l.movhi r2,0x1
	timers[0].status = TIMER_USED;
	delay_timer = &(timers[0]);
	delay_timer->pregs->control |= (0x1 << 7);

	/* register 24mhosc notifier call-back */
	ccu_24mhosc_reg_cb(timer_hosc_onoff_cb);
    4e04:	a8 63 4b 1c 	l.ori r3,r3,0x4b1c
    4e08:	04 00 34 42 	l.jal 11f10 <ccu_24mhosc_reg_cb>
    4e0c:	a8 42 32 f4 	l.ori r2,r2,0x32f4
	timer_lock = 0;
    4e10:	9c 60 00 00 	l.addi r3,r0,0x0
    4e14:	d4 02 18 00 	l.sw 0x0(r2),r3

	return OK;
}
    4e18:	9c 21 00 08 	l.addi r1,r1,0x8
    4e1c:	a9 63 00 00 	l.ori r11,r3,0x0
    4e20:	85 21 ff fc 	l.lwz r9,0xfffffffc(r1)
    4e24:	44 00 48 00 	l.jr r9
    4e28:	84 41 ff f8 	l.lwz r2,0xfffffff8(r1)

00004e2c <timer_exit>:
*
* Returns    :  OK if exit timer succeeded, others if failed.
*********************************************************************************************************
*/
s32 timer_exit(void)
{
    4e2c:	d7 e1 4f fc 	l.sw 0xfffffffc(r1),r9
    4e30:	d7 e1 17 f8 	l.sw 0xfffffff8(r1),r2
	/* set reset as de-assert state. */
	ccu_set_mclk_reset(CCU_MOD_CLK_R_TIMER0_1, CCU_CLK_RESET);
    4e34:	9c 60 00 1f 	l.addi r3,r0,0x1f
*
* Returns    :  OK if exit timer succeeded, others if failed.
*********************************************************************************************************
*/
s32 timer_exit(void)
{
    4e38:	9c 21 ff f8 	l.addi r1,r1,0xfffffff8
	/* set reset as de-assert state. */
	ccu_set_mclk_reset(CCU_MOD_CLK_R_TIMER0_1, CCU_CLK_RESET);
    4e3c:	9c 80 00 00 	l.addi r4,r0,0x0
    4e40:	04 00 34 9f 	l.jal 120bc <ccu_set_mclk_reset>
    4e44:	9c 40 00 00 	l.addi r2,r0,0x0

	/* enbale timer clock gating. */
	ccu_set_mclk_onoff(CCU_MOD_CLK_R_TIMER0_1, CCU_CLK_OFF);
    4e48:	9c 60 00 1f 	l.addi r3,r0,0x1f
    4e4c:	04 00 33 1a 	l.jal 11ab4 <ccu_set_mclk_onoff>
    4e50:	9c 80 00 00 	l.addi r4,r0,0x0

	ptimerc_regs = NULL;
    4e54:	18 60 00 01 	l.movhi r3,0x1

	timer_lock = 1;
    4e58:	9c 80 00 01 	l.addi r4,r0,0x1
	ccu_set_mclk_reset(CCU_MOD_CLK_R_TIMER0_1, CCU_CLK_RESET);

	/* enbale timer clock gating. */
	ccu_set_mclk_onoff(CCU_MOD_CLK_R_TIMER0_1, CCU_CLK_OFF);

	ptimerc_regs = NULL;
    4e5c:	a8 63 37 30 	l.ori r3,r3,0x3730

	timer_lock = 1;

	return OK;
}
    4e60:	a9 62 00 00 	l.ori r11,r2,0x0
	ccu_set_mclk_reset(CCU_MOD_CLK_R_TIMER0_1, CCU_CLK_RESET);

	/* enbale timer clock gating. */
	ccu_set_mclk_onoff(CCU_MOD_CLK_R_TIMER0_1, CCU_CLK_OFF);

	ptimerc_regs = NULL;
    4e64:	d4 03 10 00 	l.sw 0x0(r3),r2

	timer_lock = 1;
    4e68:	18 60 00 01 	l.movhi r3,0x1
    4e6c:	a8 63 32 f4 	l.ori r3,r3,0x32f4
    4e70:	d4 03 20 00 	l.sw 0x0(r3),r4

	return OK;
}
    4e74:	9c 21 00 08 	l.addi r1,r1,0x8
    4e78:	85 21 ff fc 	l.lwz r9,0xfffffffc(r1)
    4e7c:	44 00 48 00 	l.jr r9
    4e80:	84 41 ff f8 	l.lwz r2,0xfffffff8(r1)

00004e84 <timer_request>:
*
* Note       :  the callback execute entironment : CPU disable interrupt response.
*********************************************************************************************************
*/
HANDLE timer_request(__pCBK_t phdle, void *parg)
{
    4e84:	d7 e1 17 f0 	l.sw 0xfffffff0(r1),r2
	u32 cpsr;
	u32 index;
	struct timer *ptimer = NULL;

	if (timer_lock)
    4e88:	18 40 00 01 	l.movhi r2,0x1
*
* Note       :  the callback execute entironment : CPU disable interrupt response.
*********************************************************************************************************
*/
HANDLE timer_request(__pCBK_t phdle, void *parg)
{
    4e8c:	d7 e1 77 f4 	l.sw 0xfffffff4(r1),r14
	u32 cpsr;
	u32 index;
	struct timer *ptimer = NULL;

	if (timer_lock)
    4e90:	a8 42 32 f4 	l.ori r2,r2,0x32f4
*
* Note       :  the callback execute entironment : CPU disable interrupt response.
*********************************************************************************************************
*/
HANDLE timer_request(__pCBK_t phdle, void *parg)
{
    4e94:	d7 e1 87 f8 	l.sw 0xfffffff8(r1),r16
    4e98:	d7 e1 4f fc 	l.sw 0xfffffffc(r1),r9
	u32 cpsr;
	u32 index;
	struct timer *ptimer = NULL;

	if (timer_lock)
    4e9c:	84 42 00 00 	l.lwz r2,0x0(r2)
		return NULL;
    4ea0:	9d 60 00 00 	l.addi r11,r0,0x0
*
* Note       :  the callback execute entironment : CPU disable interrupt response.
*********************************************************************************************************
*/
HANDLE timer_request(__pCBK_t phdle, void *parg)
{
    4ea4:	9c 21 ff f0 	l.addi r1,r1,0xfffffff0
    4ea8:	aa 03 00 00 	l.ori r16,r3,0x0
	u32 cpsr;
	u32 index;
	struct timer *ptimer = NULL;

	if (timer_lock)
    4eac:	e4 22 58 00 	l.sfne r2,r11
    4eb0:	10 00 00 28 	l.bf 4f50 <timer_request+0xcc>
    4eb4:	a9 c4 00 00 	l.ori r14,r4,0x0
		return NULL;

	cpsr = cpu_disable_int();
    4eb8:	04 00 1b bb 	l.jal bda4 <cpu_disable_int>
    4ebc:	15 00 00 00 	l.nop 0x0
	for (index = 0; index < TIMERC_TIMERS_NUMBER; index++) {
		if (timers[index].status == TIMER_FREE) {
    4ec0:	18 c0 00 01 	l.movhi r6,0x1
    4ec4:	a8 c6 32 f8 	l.ori r6,r6,0x32f8
    4ec8:	84 a6 00 04 	l.lwz r5,0x4(r6)
    4ecc:	bc 05 00 00 	l.sfeqi r5,0x0
    4ed0:	10 00 00 07 	l.bf 4eec <timer_request+0x68>
    4ed4:	b8 65 00 02 	l.slli r3,r5,0x2
    4ed8:	84 66 00 20 	l.lwz r3,0x20(r6)
    4edc:	bc 23 00 00 	l.sfnei r3,0x0
    4ee0:	10 00 00 0c 	l.bf 4f10 <timer_request+0x8c>
    4ee4:	9c a0 00 01 	l.addi r5,r0,0x1
			/* allocate this timer */
			ptimer = &(timers[index]);
    4ee8:	b8 65 00 02 	l.slli r3,r5,0x2
    4eec:	b8 45 00 05 	l.slli r2,r5,0x5
    4ef0:	e0 42 18 02 	l.sub r2,r2,r3
    4ef4:	18 60 00 01 	l.movhi r3,0x1
    4ef8:	a8 63 32 f8 	l.ori r3,r3,0x32f8
    4efc:	e0 42 18 00 	l.add r2,r2,r3
			ptimer->status = TIMER_USED;
    4f00:	9c 60 00 01 	l.addi r3,r0,0x1
			ptimer->phandler = phdle;
    4f04:	d4 02 80 10 	l.sw 0x10(r2),r16
	cpsr = cpu_disable_int();
	for (index = 0; index < TIMERC_TIMERS_NUMBER; index++) {
		if (timers[index].status == TIMER_FREE) {
			/* allocate this timer */
			ptimer = &(timers[index]);
			ptimer->status = TIMER_USED;
    4f08:	d4 02 18 04 	l.sw 0x4(r2),r3
			ptimer->phandler = phdle;
			ptimer->parg = parg;
    4f0c:	d4 02 70 14 	l.sw 0x14(r2),r14
			break;
		}
	}
	cpu_enable_int(cpsr);
    4f10:	04 00 1b af 	l.jal bdcc <cpu_enable_int>
    4f14:	a8 6b 00 00 	l.ori r3,r11,0x0

	if (ptimer == NULL) {
    4f18:	bc 22 00 00 	l.sfnei r2,0x0
    4f1c:	10 00 00 07 	l.bf 4f38 <timer_request+0xb4>
    4f20:	18 80 00 01 	l.movhi r4,0x1
		/* no freed timer now */
		WRN("no free timer now\n");
    4f24:	9c 60 00 04 	l.addi r3,r0,0x4
    4f28:	04 00 14 24 	l.jal 9fb8 <debugger_printf>
    4f2c:	a8 84 25 97 	l.ori r4,r4,0x2597
	}

	/* install timer isr */
	install_isr(ptimer->irq_no, timer_isr, (void *)ptimer);

	return (HANDLE) ptimer;
    4f30:	00 00 00 08 	l.j 4f50 <timer_request+0xcc>
    4f34:	a9 62 00 00 	l.ori r11,r2,0x0
		WRN("no free timer now\n");
		return NULL;
	}

	/* install timer isr */
	install_isr(ptimer->irq_no, timer_isr, (void *)ptimer);
    4f38:	18 80 00 00 	l.movhi r4,0x0
    4f3c:	84 62 00 08 	l.lwz r3,0x8(r2)
    4f40:	a8 84 4c 6c 	l.ori r4,r4,0x4c6c
    4f44:	07 ff fd c0 	l.jal 4644 <install_isr>
    4f48:	a8 a2 00 00 	l.ori r5,r2,0x0

	return (HANDLE) ptimer;
    4f4c:	a9 62 00 00 	l.ori r11,r2,0x0
}
    4f50:	9c 21 00 10 	l.addi r1,r1,0x10
    4f54:	85 21 ff fc 	l.lwz r9,0xfffffffc(r1)
    4f58:	84 41 ff f0 	l.lwz r2,0xfffffff0(r1)
    4f5c:	85 c1 ff f4 	l.lwz r14,0xfffffff4(r1)
    4f60:	44 00 48 00 	l.jr r9
    4f64:	86 01 ff f8 	l.lwz r16,0xfffffff8(r1)

00004f68 <timer_release>:
*
* Returns    :  OK if release hardware timer succeeded, others if failed.
*********************************************************************************************************
*/
s32 timer_release(HANDLE htimer)
{
    4f68:	d7 e1 17 fc 	l.sw 0xfffffffc(r1),r2
    4f6c:	9c 21 ff fc 	l.addi r1,r1,0xfffffffc
	struct timer *ptimer = (struct timer *)htimer;

	ASSERT(ptimer != NULL);

	/* set timer status as free */
	ptimer->status = TIMER_FREE;
    4f70:	9c 40 00 00 	l.addi r2,r0,0x0
	ptimer->phandler = NULL;
	ptimer->parg = NULL;

	return OK;
}
    4f74:	9c 21 00 04 	l.addi r1,r1,0x4
    4f78:	a9 62 00 00 	l.ori r11,r2,0x0
	struct timer *ptimer = (struct timer *)htimer;

	ASSERT(ptimer != NULL);

	/* set timer status as free */
	ptimer->status = TIMER_FREE;
    4f7c:	d4 03 10 04 	l.sw 0x4(r3),r2
	ptimer->phandler = NULL;
    4f80:	d4 03 10 10 	l.sw 0x10(r3),r2
	ptimer->parg = NULL;
    4f84:	d4 03 10 14 	l.sw 0x14(r3),r2

	return OK;
}
    4f88:	44 00 48 00 	l.jr r9
    4f8c:	84 41 ff fc 	l.lwz r2,0xfffffffc(r1)

00004f90 <timer_start>:
*
* Returns    :  OK if start hardware timer succeeded, others if failed.
*********************************************************************************************************
*/
s32 timer_start(HANDLE htimer, u32 period, u32 mode)
{
    4f90:	d7 e1 17 f4 	l.sw 0xfffffff4(r1),r2
    4f94:	a8 43 00 00 	l.ori r2,r3,0x0
	struct timer *ptimer = (struct timer *)htimer;

	ASSERT(ptimer != NULL);

	if (timer_lock)
    4f98:	18 60 00 01 	l.movhi r3,0x1
*
* Returns    :  OK if start hardware timer succeeded, others if failed.
*********************************************************************************************************
*/
s32 timer_start(HANDLE htimer, u32 period, u32 mode)
{
    4f9c:	d7 e1 4f fc 	l.sw 0xfffffffc(r1),r9
	struct timer *ptimer = (struct timer *)htimer;

	ASSERT(ptimer != NULL);

	if (timer_lock)
    4fa0:	a8 63 32 f4 	l.ori r3,r3,0x32f4
*
* Returns    :  OK if start hardware timer succeeded, others if failed.
*********************************************************************************************************
*/
s32 timer_start(HANDLE htimer, u32 period, u32 mode)
{
    4fa4:	d7 e1 77 f8 	l.sw 0xfffffff8(r1),r14
	struct timer *ptimer = (struct timer *)htimer;

	ASSERT(ptimer != NULL);

	if (timer_lock)
    4fa8:	84 63 00 00 	l.lwz r3,0x0(r3)
*
* Returns    :  OK if start hardware timer succeeded, others if failed.
*********************************************************************************************************
*/
s32 timer_start(HANDLE htimer, u32 period, u32 mode)
{
    4fac:	9c 21 ff f4 	l.addi r1,r1,0xfffffff4
	struct timer *ptimer = (struct timer *)htimer;

	ASSERT(ptimer != NULL);

	if (timer_lock)
    4fb0:	bc 23 00 00 	l.sfnei r3,0x0
    4fb4:	10 00 00 27 	l.bf 5050 <timer_start+0xc0>
    4fb8:	9d 60 ff f3 	l.addi r11,r0,0xfffffff3
		return -EACCES;

	/* set timer period */
	ptimer->pregs->interval_value = ptimer->ms_ticks * period;
    4fbc:	84 62 00 0c 	l.lwz r3,0xc(r2)
    4fc0:	84 c2 00 18 	l.lwz r6,0x18(r2)
    4fc4:	e0 84 1b 06 	l.mul r4,r4,r3
    4fc8:	d4 06 20 04 	l.sw 0x4(r6),r4
	ptimer->pregs->control |= (1 << 1);	/* reload interval value to current value */
    4fcc:	84 66 00 00 	l.lwz r3,0x0(r6)
    4fd0:	a8 63 00 02 	l.ori r3,r3,0x2
    4fd4:	d4 06 18 00 	l.sw 0x0(r6),r3
	while ((ptimer->pregs->control) & (1 << 1))
    4fd8:	85 c6 00 00 	l.lwz r14,0x0(r6)
    4fdc:	a5 ce 00 02 	l.andi r14,r14,0x2
    4fe0:	bc 2e 00 00 	l.sfnei r14,0x0
    4fe4:	13 ff ff fd 	l.bf 4fd8 <timer_start+0x48>
    4fe8:	15 00 00 00 	l.nop 0x0
		;

	/* set timer mode */
	ptimer->pregs->control &= ~(1 << 7);
    4fec:	84 66 00 00 	l.lwz r3,0x0(r6)
    4ff0:	9c 80 ff 7f 	l.addi r4,r0,0xffffff7f
	ptimer->pregs->control |= (mode << 7);
    4ff4:	b8 a5 00 07 	l.slli r5,r5,0x7
	ptimer->pregs->control |= (1 << 1);	/* reload interval value to current value */
	while ((ptimer->pregs->control) & (1 << 1))
		;

	/* set timer mode */
	ptimer->pregs->control &= ~(1 << 7);
    4ff8:	e0 63 20 03 	l.and r3,r3,r4
	ptimer->pregs->control |= (mode << 7);

	/* clear timer pending */
	ptimerc_regs->irq_status = (1 << ptimer->timer_no);
    4ffc:	9c 80 00 01 	l.addi r4,r0,0x1
	ptimer->pregs->control |= (1 << 1);	/* reload interval value to current value */
	while ((ptimer->pregs->control) & (1 << 1))
		;

	/* set timer mode */
	ptimer->pregs->control &= ~(1 << 7);
    5000:	d4 06 18 00 	l.sw 0x0(r6),r3
	ptimer->pregs->control |= (mode << 7);
    5004:	84 66 00 00 	l.lwz r3,0x0(r6)
    5008:	e0 a5 18 04 	l.or r5,r5,r3

	/* clear timer pending */
	ptimerc_regs->irq_status = (1 << ptimer->timer_no);
    500c:	18 60 00 01 	l.movhi r3,0x1
	while ((ptimer->pregs->control) & (1 << 1))
		;

	/* set timer mode */
	ptimer->pregs->control &= ~(1 << 7);
	ptimer->pregs->control |= (mode << 7);
    5010:	d4 06 28 00 	l.sw 0x0(r6),r5

	/* clear timer pending */
	ptimerc_regs->irq_status = (1 << ptimer->timer_no);
    5014:	84 a2 00 00 	l.lwz r5,0x0(r2)
    5018:	a8 63 37 30 	l.ori r3,r3,0x3730
    501c:	e0 84 28 08 	l.sll r4,r4,r5
    5020:	84 63 00 00 	l.lwz r3,0x0(r3)
    5024:	d4 03 20 04 	l.sw 0x4(r3),r4

	/* enable timer interrupt */
	ptimerc_regs->irq_enbale |= (1 << ptimer->timer_no);
    5028:	84 a3 00 00 	l.lwz r5,0x0(r3)
    502c:	e0 84 28 04 	l.or r4,r4,r5
    5030:	d4 03 20 00 	l.sw 0x0(r3),r4
	interrupt_enable(ptimer->irq_no);
    5034:	07 ff fd 62 	l.jal 45bc <interrupt_enable>
    5038:	84 62 00 08 	l.lwz r3,0x8(r2)

	/* enable timer */
	ptimer->pregs->control |= 0x1;
    503c:	84 42 00 18 	l.lwz r2,0x18(r2)

	return OK;
    5040:	a9 6e 00 00 	l.ori r11,r14,0x0
	/* enable timer interrupt */
	ptimerc_regs->irq_enbale |= (1 << ptimer->timer_no);
	interrupt_enable(ptimer->irq_no);

	/* enable timer */
	ptimer->pregs->control |= 0x1;
    5044:	84 62 00 00 	l.lwz r3,0x0(r2)
    5048:	a8 63 00 01 	l.ori r3,r3,0x1
    504c:	d4 02 18 00 	l.sw 0x0(r2),r3

	return OK;
}
    5050:	9c 21 00 0c 	l.addi r1,r1,0xc
    5054:	85 21 ff fc 	l.lwz r9,0xfffffffc(r1)
    5058:	84 41 ff f4 	l.lwz r2,0xfffffff4(r1)
    505c:	44 00 48 00 	l.jr r9
    5060:	85 c1 ff f8 	l.lwz r14,0xfffffff8(r1)

00005064 <timer_stop>:
*
* Returns    :  OK if stop hardware timer succeeded, others if failed.
*********************************************************************************************************
*/
s32 timer_stop(HANDLE htimer)
{
    5064:	d7 e1 17 ec 	l.sw 0xffffffec(r1),r2
    5068:	a8 43 00 00 	l.ori r2,r3,0x0
	struct timer *ptimer = (struct timer *)htimer;

	ASSERT(ptimer != NULL);

	if (timer_lock)
    506c:	18 60 00 01 	l.movhi r3,0x1
*
* Returns    :  OK if stop hardware timer succeeded, others if failed.
*********************************************************************************************************
*/
s32 timer_stop(HANDLE htimer)
{
    5070:	d7 e1 87 f4 	l.sw 0xfffffff4(r1),r16
	struct timer *ptimer = (struct timer *)htimer;

	ASSERT(ptimer != NULL);

	if (timer_lock)
    5074:	a8 63 32 f4 	l.ori r3,r3,0x32f4
*
* Returns    :  OK if stop hardware timer succeeded, others if failed.
*********************************************************************************************************
*/
s32 timer_stop(HANDLE htimer)
{
    5078:	d7 e1 4f fc 	l.sw 0xfffffffc(r1),r9
    507c:	d7 e1 77 f0 	l.sw 0xfffffff0(r1),r14
    5080:	d7 e1 97 f8 	l.sw 0xfffffff8(r1),r18
	struct timer *ptimer = (struct timer *)htimer;

	ASSERT(ptimer != NULL);

	if (timer_lock)
    5084:	86 03 00 00 	l.lwz r16,0x0(r3)
*
* Returns    :  OK if stop hardware timer succeeded, others if failed.
*********************************************************************************************************
*/
s32 timer_stop(HANDLE htimer)
{
    5088:	9c 21 ff ec 	l.addi r1,r1,0xffffffec
	struct timer *ptimer = (struct timer *)htimer;

	ASSERT(ptimer != NULL);

	if (timer_lock)
    508c:	bc 30 00 00 	l.sfnei r16,0x0
    5090:	10 00 00 18 	l.bf 50f0 <timer_stop+0x8c>
    5094:	9d 60 ff f3 	l.addi r11,r0,0xfffffff3
		return -EACCES;

	/* disable timer */
	ptimer->pregs->control &= ~(0x1);
    5098:	84 62 00 18 	l.lwz r3,0x18(r2)
    509c:	9c a0 ff fe 	l.addi r5,r0,0xfffffffe
    50a0:	84 83 00 00 	l.lwz r4,0x0(r3)

	/* disable timer irq */
	ptimerc_regs->irq_enbale &= ~(1 << ptimer->timer_no);
    50a4:	19 c0 00 01 	l.movhi r14,0x1

	if (timer_lock)
		return -EACCES;

	/* disable timer */
	ptimer->pregs->control &= ~(0x1);
    50a8:	e0 84 28 03 	l.and r4,r4,r5

	/* disable timer irq */
	ptimerc_regs->irq_enbale &= ~(1 << ptimer->timer_no);
    50ac:	9e 40 00 01 	l.addi r18,r0,0x1

	if (timer_lock)
		return -EACCES;

	/* disable timer */
	ptimer->pregs->control &= ~(0x1);
    50b0:	d4 03 20 00 	l.sw 0x0(r3),r4

	/* disable timer irq */
	ptimerc_regs->irq_enbale &= ~(1 << ptimer->timer_no);
    50b4:	84 82 00 00 	l.lwz r4,0x0(r2)
    50b8:	a9 ce 37 30 	l.ori r14,r14,0x3730
    50bc:	e0 92 20 08 	l.sll r4,r18,r4
    50c0:	84 6e 00 00 	l.lwz r3,0x0(r14)
    50c4:	ac 84 ff ff 	l.xori r4,r4,0xffffffff
    50c8:	84 a3 00 00 	l.lwz r5,0x0(r3)
    50cc:	e0 84 28 03 	l.and r4,r4,r5
    50d0:	d4 03 20 00 	l.sw 0x0(r3),r4
	interrupt_disable(ptimer->irq_no);
    50d4:	07 ff fd 40 	l.jal 45d4 <interrupt_disable>
    50d8:	84 62 00 08 	l.lwz r3,0x8(r2)

	/* clear timer pending */
	ptimerc_regs->irq_status = (1 << ptimer->timer_no);
    50dc:	84 42 00 00 	l.lwz r2,0x0(r2)
    50e0:	84 6e 00 00 	l.lwz r3,0x0(r14)
    50e4:	e2 52 10 08 	l.sll r18,r18,r2

	return OK;
    50e8:	a9 70 00 00 	l.ori r11,r16,0x0
	/* disable timer irq */
	ptimerc_regs->irq_enbale &= ~(1 << ptimer->timer_no);
	interrupt_disable(ptimer->irq_no);

	/* clear timer pending */
	ptimerc_regs->irq_status = (1 << ptimer->timer_no);
    50ec:	d4 03 90 04 	l.sw 0x4(r3),r18

	return OK;
}
    50f0:	9c 21 00 14 	l.addi r1,r1,0x14
    50f4:	85 21 ff fc 	l.lwz r9,0xfffffffc(r1)
    50f8:	84 41 ff ec 	l.lwz r2,0xffffffec(r1)
    50fc:	85 c1 ff f0 	l.lwz r14,0xfffffff0(r1)
    5100:	86 01 ff f4 	l.lwz r16,0xfffffff4(r1)
    5104:	44 00 48 00 	l.jr r9
    5108:	86 41 ff f8 	l.lwz r18,0xfffffff8(r1)

0000510c <time_mdelay>:

extern volatile u32 timer_lock;

void time_mdelay(u32 ms)
{
	if (timer_lock)
    510c:	18 80 00 01 	l.movhi r4,0x1
#include "timer_i.h"

extern volatile u32 timer_lock;

void time_mdelay(u32 ms)
{
    5110:	d7 e1 17 fc 	l.sw 0xfffffffc(r1),r2
	if (timer_lock)
    5114:	a8 84 32 f4 	l.ori r4,r4,0x32f4
#include "timer_i.h"

extern volatile u32 timer_lock;

void time_mdelay(u32 ms)
{
    5118:	9c 21 ff fc 	l.addi r1,r1,0xfffffffc
	if (timer_lock)
    511c:	84 84 00 00 	l.lwz r4,0x0(r4)
    5120:	bc 24 00 00 	l.sfnei r4,0x0
    5124:	10 00 00 25 	l.bf 51b8 <time_mdelay+0xac>
    5128:	bc 03 00 00 	l.sfeqi r3,0x0

	/*
	 * check delay time too long
	 * ...
	 */
	if ((ms == 0) || (delay_timer->ms_ticks * ms >= 4294967296)) {
    512c:	10 00 00 23 	l.bf 51b8 <time_mdelay+0xac>
    5130:	18 80 00 01 	l.movhi r4,0x1
		/* no delay */
		return;
	}

	/* config timer internal value */
	delay_timer->pregs->interval_value = delay_timer->ms_ticks * ms;
    5134:	a8 84 37 2c 	l.ori r4,r4,0x372c
    5138:	84 a4 00 00 	l.lwz r5,0x0(r4)
    513c:	84 c5 00 0c 	l.lwz r6,0xc(r5)
    5140:	84 85 00 18 	l.lwz r4,0x18(r5)
    5144:	e0 63 33 06 	l.mul r3,r3,r6
    5148:	d4 04 18 04 	l.sw 0x4(r4),r3
	delay_timer->pregs->control |= (1 << 1);	/* reload interval value to current value */
    514c:	84 64 00 00 	l.lwz r3,0x0(r4)
    5150:	a8 63 00 02 	l.ori r3,r3,0x2
    5154:	d4 04 18 00 	l.sw 0x0(r4),r3
	while ((delay_timer->pregs->control) & (1 << 1))
    5158:	84 64 00 00 	l.lwz r3,0x0(r4)
    515c:	a4 63 00 02 	l.andi r3,r3,0x2
    5160:	bc 23 00 00 	l.sfnei r3,0x0
    5164:	13 ff ff fd 	l.bf 5158 <time_mdelay+0x4c>
    5168:	18 60 00 01 	l.movhi r3,0x1
		;

	/* clear timer pending */
	ptimerc_regs->irq_status = (1 << delay_timer->timer_no);
    516c:	84 a5 00 00 	l.lwz r5,0x0(r5)
    5170:	9c c0 00 01 	l.addi r6,r0,0x1
    5174:	a8 63 37 30 	l.ori r3,r3,0x3730
    5178:	e0 a6 28 08 	l.sll r5,r6,r5
    517c:	84 63 00 00 	l.lwz r3,0x0(r3)
    5180:	d4 03 28 04 	l.sw 0x4(r3),r5

	/* start timer */
	delay_timer->pregs->control |= 0x1;
    5184:	84 c4 00 00 	l.lwz r6,0x0(r4)
    5188:	a8 c6 00 01 	l.ori r6,r6,0x1
    518c:	d4 04 30 00 	l.sw 0x0(r4),r6

	/* check timer pending valid or not */
	while ((ptimerc_regs->irq_status & (1 << delay_timer->timer_no)) == 0) {
    5190:	84 c3 00 04 	l.lwz r6,0x4(r3)
    5194:	e0 c5 30 03 	l.and r6,r5,r6
    5198:	bc 06 00 00 	l.sfeqi r6,0x0
    519c:	13 ff ff fd 	l.bf 5190 <time_mdelay+0x84>
    51a0:	15 00 00 00 	l.nop 0x0
		;
	}

	/* stop timer */
	delay_timer->pregs->control &= ~(0x1);
    51a4:	84 c4 00 00 	l.lwz r6,0x0(r4)
    51a8:	9c 40 ff fe 	l.addi r2,r0,0xfffffffe
    51ac:	e0 c6 10 03 	l.and r6,r6,r2
    51b0:	d4 04 30 00 	l.sw 0x0(r4),r6

	/* clear timer pending */
	ptimerc_regs->irq_status = (1 << delay_timer->timer_no);
    51b4:	d4 03 28 04 	l.sw 0x4(r3),r5
}
    51b8:	9c 21 00 04 	l.addi r1,r1,0x4
    51bc:	44 00 48 00 	l.jr r9
    51c0:	84 41 ff fc 	l.lwz r2,0xfffffffc(r1)

000051c4 <cnt64_udelay>:

void cnt64_udelay(u32 us)
{
    51c4:	d7 e1 17 f4 	l.sw 0xfffffff4(r1),r2
    51c8:	d7 e1 4f fc 	l.sw 0xfffffffc(r1),r9
    51cc:	d7 e1 77 f8 	l.sw 0xfffffff8(r1),r14
    51d0:	a8 43 00 00 	l.ori r2,r3,0x0
	u64 expire = 0;

	if (us == 0) {
    51d4:	bc 03 00 00 	l.sfeqi r3,0x0
    51d8:	10 00 00 16 	l.bf 5230 <cnt64_udelay+0x6c>
    51dc:	9c 21 ff f4 	l.addi r1,r1,0xfffffff4
		/* no delay */
		return;
	}

	/* calc expire time */
	expire = (us * 24) + cpucfg_counter_read();
    51e0:	04 00 1e 55 	l.jal cb34 <cpucfg_counter_read>
    51e4:	9d c0 00 01 	l.addi r14,r0,0x1
    51e8:	e0 62 10 00 	l.add r3,r2,r2
    51ec:	e0 43 10 00 	l.add r2,r3,r2
    51f0:	b8 42 00 03 	l.slli r2,r2,0x3
    51f4:	e0 4c 10 00 	l.add r2,r12,r2
    51f8:	e4 82 60 00 	l.sfltu r2,r12
    51fc:	10 00 00 04 	l.bf 520c <cnt64_udelay+0x48>
    5200:	e1 ce 58 00 	l.add r14,r14,r11
    5204:	9d c0 00 00 	l.addi r14,r0,0x0
    5208:	e1 ce 58 00 	l.add r14,r14,r11
	while (expire > cpucfg_counter_read()) {
    520c:	04 00 1e 4a 	l.jal cb34 <cpucfg_counter_read>
    5210:	15 00 00 00 	l.nop 0x0
    5214:	e4 4e 58 00 	l.sfgtu r14,r11
    5218:	13 ff ff fd 	l.bf 520c <cnt64_udelay+0x48>
    521c:	e4 2e 58 00 	l.sfne r14,r11
    5220:	10 00 00 04 	l.bf 5230 <cnt64_udelay+0x6c>
    5224:	e4 42 60 00 	l.sfgtu r2,r12
    5228:	13 ff ff f9 	l.bf 520c <cnt64_udelay+0x48>
    522c:	15 00 00 00 	l.nop 0x0
		/* wait busy */
		;
	}
}
    5230:	9c 21 00 0c 	l.addi r1,r1,0xc
    5234:	85 21 ff fc 	l.lwz r9,0xfffffffc(r1)
    5238:	84 41 ff f4 	l.lwz r2,0xfffffff4(r1)
    523c:	44 00 48 00 	l.jr r9
    5240:	85 c1 ff f8 	l.lwz r14,0xfffffff8(r1)

00005244 <time_udelay>:

void time_udelay(u32 us)
{
    5244:	d7 e1 17 f8 	l.sw 0xfffffff8(r1),r2
    5248:	d7 e1 4f fc 	l.sw 0xfffffffc(r1),r9
    524c:	a8 43 00 00 	l.ori r2,r3,0x0
	u32 cycles;
	u32 cpus_freq;

	if (us == 0) {
    5250:	bc 03 00 00 	l.sfeqi r3,0x0
    5254:	10 00 00 1e 	l.bf 52cc <time_udelay+0x88>
    5258:	9c 21 ff f8 	l.addi r1,r1,0xfffffff8
		/* no delay */
		return;
	}

	if (is_hosc_lock() || is_suspend_lock()) {
    525c:	04 00 33 94 	l.jal 120ac <is_hosc_lock>
    5260:	15 00 00 00 	l.nop 0x0
    5264:	bc 2b 00 00 	l.sfnei r11,0x0
    5268:	10 00 00 07 	l.bf 5284 <time_udelay+0x40>
    526c:	15 00 00 00 	l.nop 0x0
    5270:	04 00 16 6a 	l.jal ac18 <is_suspend_lock>
    5274:	15 00 00 00 	l.nop 0x0
    5278:	bc 0b 00 00 	l.sfeqi r11,0x0
    527c:	10 00 00 10 	l.bf 52bc <time_udelay+0x78>
    5280:	a8 62 00 00 	l.ori r3,r2,0x0
		cpus_freq = ccu_get_sclk_freq(CCU_SYS_CLK_CPUS);
    5284:	04 00 34 51 	l.jal 123c8 <ccu_get_sclk_freq>
    5288:	9c 60 00 11 	l.addi r3,r0,0x11
		cycles = (cpus_freq * us + (1000000 - 1)) / 1000000;
    528c:	e0 4b 13 06 	l.mul r2,r11,r2
    5290:	18 80 00 0f 	l.movhi r4,0xf
    5294:	a8 84 42 3f 	l.ori r4,r4,0x423f
    5298:	e0 62 20 00 	l.add r3,r2,r4
    529c:	18 80 00 0f 	l.movhi r4,0xf
    52a0:	04 00 1b da 	l.jal c208 <__udivsi3>
    52a4:	a8 84 42 40 	l.ori r4,r4,0x4240
		time_cdelay(cycles);
	} else {
		cnt64_udelay(us);
	}

}
    52a8:	9c 21 00 08 	l.addi r1,r1,0x8
	}

	if (is_hosc_lock() || is_suspend_lock()) {
		cpus_freq = ccu_get_sclk_freq(CCU_SYS_CLK_CPUS);
		cycles = (cpus_freq * us + (1000000 - 1)) / 1000000;
		time_cdelay(cycles);
    52ac:	a8 6b 00 00 	l.ori r3,r11,0x0
	} else {
		cnt64_udelay(us);
	}

}
    52b0:	85 21 ff fc 	l.lwz r9,0xfffffffc(r1)
	}

	if (is_hosc_lock() || is_suspend_lock()) {
		cpus_freq = ccu_get_sclk_freq(CCU_SYS_CLK_CPUS);
		cycles = (cpus_freq * us + (1000000 - 1)) / 1000000;
		time_cdelay(cycles);
    52b4:	00 00 00 0a 	l.j 52dc <time_cdelay>
    52b8:	84 41 ff f8 	l.lwz r2,0xfffffff8(r1)
	} else {
		cnt64_udelay(us);
	}

}
    52bc:	9c 21 00 08 	l.addi r1,r1,0x8
    52c0:	85 21 ff fc 	l.lwz r9,0xfffffffc(r1)
	if (is_hosc_lock() || is_suspend_lock()) {
		cpus_freq = ccu_get_sclk_freq(CCU_SYS_CLK_CPUS);
		cycles = (cpus_freq * us + (1000000 - 1)) / 1000000;
		time_cdelay(cycles);
	} else {
		cnt64_udelay(us);
    52c4:	03 ff ff c0 	l.j 51c4 <cnt64_udelay>
    52c8:	84 41 ff f8 	l.lwz r2,0xfffffff8(r1)
	}

}
    52cc:	9c 21 00 08 	l.addi r1,r1,0x8
    52d0:	85 21 ff fc 	l.lwz r9,0xfffffffc(r1)
    52d4:	44 00 48 00 	l.jr r9
    52d8:	84 41 ff f8 	l.lwz r2,0xfffffff8(r1)

000052dc <time_cdelay>:
    52dc:	bc 23 00 00 	l.sfnei r3,0x0
    52e0:	13 ff ff ff 	l.bf 52dc <time_cdelay>
    52e4:	9c 63 ff ff 	l.addi r3,r3,0xffffffff
    52e8:	9c 63 00 01 	l.addi r3,r3,0x1
    52ec:	44 00 48 00 	l.jr r9
    52f0:	15 00 00 00 	l.nop 0x0

000052f4 <uart_init>:
 *
 * @return: OK if initialize uart succeeded, others if failed.
 * @note: initialize uart.
 */
s32 uart_init(void)
{
    52f4:	d7 e1 17 f4 	l.sw 0xfffffff4(r1),r2
	u32 div;
	u32 lcr;
	u32 apb0_clk;

	/* uart_pin_not_used may parse from dts */
	uart_pin_not_used = 0;
    52f8:	18 40 00 01 	l.movhi r2,0x1
    52fc:	9c 60 00 00 	l.addi r3,r0,0x0
    5300:	a8 42 34 30 	l.ori r2,r2,0x3430
 *
 * @return: OK if initialize uart succeeded, others if failed.
 * @note: initialize uart.
 */
s32 uart_init(void)
{
    5304:	d7 e1 4f fc 	l.sw 0xfffffffc(r1),r9
    5308:	d7 e1 77 f8 	l.sw 0xfffffff8(r1),r14
	u32 div;
	u32 lcr;
	u32 apb0_clk;

	/* uart_pin_not_used may parse from dts */
	uart_pin_not_used = 0;
    530c:	d4 02 18 00 	l.sw 0x0(r2),r3
 *
 * @return: OK if initialize uart succeeded, others if failed.
 * @note: initialize uart.
 */
s32 uart_init(void)
{
    5310:	9c 21 ff f4 	l.addi r1,r1,0xfffffff4
	u32 lcr;
	u32 apb0_clk;

	/* uart_pin_not_used may parse from dts */
	uart_pin_not_used = 0;
	if (uart_pin_not_used)
    5314:	84 42 00 00 	l.lwz r2,0x0(r2)
    5318:	e4 22 18 00 	l.sfne r2,r3
    531c:	10 00 00 32 	l.bf 53e4 <uart_init+0xf0>
    5320:	9d 60 ff f3 	l.addi r11,r0,0xfffffff3
		return -EACCES;

	uart_rate = UART_BAUDRATE;
    5324:	19 c0 00 01 	l.movhi r14,0x1
    5328:	a8 60 e1 00 	l.ori r3,r0,0xe100
    532c:	a9 ce 34 34 	l.ori r14,r14,0x3434
#ifndef CFG_FPGA_PLATFORM
	pin_set_multi_sel(PIN_GRP_PL, 2, 2);
    5330:	9c 80 00 02 	l.addi r4,r0,0x2
	/* uart_pin_not_used may parse from dts */
	uart_pin_not_used = 0;
	if (uart_pin_not_used)
		return -EACCES;

	uart_rate = UART_BAUDRATE;
    5334:	d4 0e 18 00 	l.sw 0x0(r14),r3
#ifndef CFG_FPGA_PLATFORM
	pin_set_multi_sel(PIN_GRP_PL, 2, 2);
    5338:	a8 a4 00 00 	l.ori r5,r4,0x0
    533c:	07 ff fd 43 	l.jal 4848 <pin_set_multi_sel>
    5340:	9c 60 00 01 	l.addi r3,r0,0x1
	pin_set_multi_sel(PIN_GRP_PL, 3, 2);
    5344:	9c a0 00 02 	l.addi r5,r0,0x2
    5348:	9c 60 00 01 	l.addi r3,r0,0x1
    534c:	07 ff fd 3f 	l.jal 4848 <pin_set_multi_sel>
    5350:	9c 80 00 03 	l.addi r4,r0,0x3
	/* set reset as assert state. */
	ccu_set_mclk_reset(CCU_MOD_CLK_R_UART, CCU_CLK_NRESET),
    5354:	9c 60 00 1a 	l.addi r3,r0,0x1a
    5358:	04 00 33 59 	l.jal 120bc <ccu_set_mclk_reset>
    535c:	9c 80 00 01 	l.addi r4,r0,0x1

	/* set uart clock, open apb0 uart gating. */
	ccu_set_mclk_onoff(CCU_MOD_CLK_R_UART, CCU_CLK_ON);
    5360:	9c 80 00 01 	l.addi r4,r0,0x1
    5364:	04 00 31 d4 	l.jal 11ab4 <ccu_set_mclk_onoff>
    5368:	9c 60 00 1a 	l.addi r3,r0,0x1a

	/* the baud rate divisor */
	apb0_clk = ccu_get_sclk_freq(CCU_SYS_CLK_APBS2);
    536c:	04 00 34 17 	l.jal 123c8 <ccu_get_sclk_freq>
    5370:	9c 60 00 24 	l.addi r3,r0,0x24
	div = (apb0_clk + (uart_rate << 3)) / (uart_rate << 4);
    5374:	84 6e 00 00 	l.lwz r3,0x0(r14)
    5378:	84 8e 00 00 	l.lwz r4,0x0(r14)
    537c:	b8 63 00 03 	l.slli r3,r3,0x3
    5380:	b8 84 00 04 	l.slli r4,r4,0x4
    5384:	04 00 1b a1 	l.jal c208 <__udivsi3>
    5388:	e0 6b 18 00 	l.add r3,r11,r3
	pin_set_multi_sel(PIN_GRP_PL, 2, 2);
	pin_set_multi_sel(PIN_GRP_PL, 3, 2);
#endif

	/* initialize uart controller */
	lcr = readl(UART_REG_LCR);
    538c:	18 60 07 08 	l.movhi r3,0x708
    5390:	a8 83 00 0c 	l.ori r4,r3,0xc
    5394:	84 a4 00 00 	l.lwz r5,0x0(r4)
	writel(lcr | 0x80, UART_REG_LCR);  /* select the Divsor Latch Low Register and Divsor Latch High Register */
    5398:	a8 a5 00 80 	l.ori r5,r5,0x80
    539c:	d4 04 28 00 	l.sw 0x0(r4),r5
	writel(div & 0xff, UART_REG_DLL);
    53a0:	a4 ab 00 ff 	l.andi r5,r11,0xff
	writel((div >> 8) & 0xff, UART_REG_DLH);
    53a4:	b9 6b 00 48 	l.srli r11,r11,0x8
#endif

	/* initialize uart controller */
	lcr = readl(UART_REG_LCR);
	writel(lcr | 0x80, UART_REG_LCR);  /* select the Divsor Latch Low Register and Divsor Latch High Register */
	writel(div & 0xff, UART_REG_DLL);
    53a8:	d4 03 28 00 	l.sw 0x0(r3),r5
	writel((div >> 8) & 0xff, UART_REG_DLH);
    53ac:	a8 a3 00 04 	l.ori r5,r3,0x4
    53b0:	a5 6b 00 ff 	l.andi r11,r11,0xff
    53b4:	d4 05 58 00 	l.sw 0x0(r5),r11
#ifdef CFG_SHELL_USED
	writel(lcr & (~0x80), UART_REG_LCR);
#endif
	writel(0, UART_REG_HALT);
    53b8:	a8 a3 00 a4 	l.ori r5,r3,0xa4
	writel(3, UART_REG_LCR);           /* set mode, 8bit charset */
	writel(7, UART_REG_FCR);           /* enable and reset transmit/receive fifo */
    53bc:	a8 63 00 08 	l.ori r3,r3,0x8
	writel(div & 0xff, UART_REG_DLL);
	writel((div >> 8) & 0xff, UART_REG_DLH);
#ifdef CFG_SHELL_USED
	writel(lcr & (~0x80), UART_REG_LCR);
#endif
	writel(0, UART_REG_HALT);
    53c0:	d4 05 10 00 	l.sw 0x0(r5),r2
	writel(3, UART_REG_LCR);           /* set mode, 8bit charset */
    53c4:	9c a0 00 03 	l.addi r5,r0,0x3
#endif
	/* ensure uart is unlock */
	uart_lock = 0;

	/* uart initialize succeeded */
	return OK;
    53c8:	a9 62 00 00 	l.ori r11,r2,0x0
	writel((div >> 8) & 0xff, UART_REG_DLH);
#ifdef CFG_SHELL_USED
	writel(lcr & (~0x80), UART_REG_LCR);
#endif
	writel(0, UART_REG_HALT);
	writel(3, UART_REG_LCR);           /* set mode, 8bit charset */
    53cc:	d4 04 28 00 	l.sw 0x0(r4),r5
	writel(7, UART_REG_FCR);           /* enable and reset transmit/receive fifo */
    53d0:	9c 80 00 07 	l.addi r4,r0,0x7
    53d4:	d4 03 20 00 	l.sw 0x0(r3),r4
#ifdef CFG_SHELL_USED
	writel(1, UART_REG_IER);       /* enable receiver interrupt */
#endif
	/* ensure uart is unlock */
	uart_lock = 0;
    53d8:	18 60 00 01 	l.movhi r3,0x1
    53dc:	a8 63 33 30 	l.ori r3,r3,0x3330
    53e0:	d4 03 10 00 	l.sw 0x0(r3),r2

	/* uart initialize succeeded */
	return OK;
}
    53e4:	9c 21 00 0c 	l.addi r1,r1,0xc
    53e8:	85 21 ff fc 	l.lwz r9,0xfffffffc(r1)
    53ec:	84 41 ff f4 	l.lwz r2,0xfffffff4(r1)
    53f0:	44 00 48 00 	l.jr r9
    53f4:	85 c1 ff f8 	l.lwz r14,0xfffffff8(r1)

000053f8 <uart_exit>:
 * @return: OK if exit uart succeeded, others if failed.
 * @note: exit uart.
 */
s32 uart_exit(void)
{
	uart_lock = 1;
    53f8:	18 60 00 01 	l.movhi r3,0x1
 *
 * @return: OK if exit uart succeeded, others if failed.
 * @note: exit uart.
 */
s32 uart_exit(void)
{
    53fc:	d7 e1 17 f8 	l.sw 0xfffffff8(r1),r2
	uart_lock = 1;
    5400:	a8 63 33 30 	l.ori r3,r3,0x3330
    5404:	9c 40 00 01 	l.addi r2,r0,0x1
 *
 * @return: OK if exit uart succeeded, others if failed.
 * @note: exit uart.
 */
s32 uart_exit(void)
{
    5408:	d7 e1 4f fc 	l.sw 0xfffffffc(r1),r9
	uart_lock = 1;
    540c:	d4 03 10 00 	l.sw 0x0(r3),r2
	uart_pin_not_used = 0;
    5410:	18 60 00 01 	l.movhi r3,0x1
    5414:	9c 80 00 00 	l.addi r4,r0,0x0
    5418:	a8 63 34 30 	l.ori r3,r3,0x3430
 *
 * @return: OK if exit uart succeeded, others if failed.
 * @note: exit uart.
 */
s32 uart_exit(void)
{
    541c:	9c 21 ff f8 	l.addi r1,r1,0xfffffff8
	uart_lock = 1;
	uart_pin_not_used = 0;
    5420:	d4 03 20 00 	l.sw 0x0(r3),r4

	pin_set_multi_sel(PIN_GRP_PL, 2, 7);
    5424:	9c a0 00 07 	l.addi r5,r0,0x7
    5428:	a8 62 00 00 	l.ori r3,r2,0x0
    542c:	07 ff fd 07 	l.jal 4848 <pin_set_multi_sel>
    5430:	9c 80 00 02 	l.addi r4,r0,0x2
	pin_set_multi_sel(PIN_GRP_PL, 3, 7);
    5434:	a8 62 00 00 	l.ori r3,r2,0x0
    5438:	9c a0 00 07 	l.addi r5,r0,0x7
    543c:	07 ff fd 03 	l.jal 4848 <pin_set_multi_sel>
    5440:	9c 80 00 03 	l.addi r4,r0,0x3

	/* set uart clock, open apb0 uart gating. */
	ccu_set_mclk_onoff(CCU_MOD_CLK_R_UART, CCU_CLK_OFF);
    5444:	9c 60 00 1a 	l.addi r3,r0,0x1a
    5448:	04 00 31 9b 	l.jal 11ab4 <ccu_set_mclk_onoff>
    544c:	9c 80 00 00 	l.addi r4,r0,0x0

	/* set reset as assert state. */
	ccu_set_mclk_reset(CCU_MOD_CLK_R_UART, CCU_CLK_RESET);
    5450:	9c 60 00 1a 	l.addi r3,r0,0x1a
    5454:	04 00 33 1a 	l.jal 120bc <ccu_set_mclk_reset>
    5458:	9c 80 00 00 	l.addi r4,r0,0x0

	return OK;
}
    545c:	9c 21 00 08 	l.addi r1,r1,0x8
    5460:	9d 60 00 00 	l.addi r11,r0,0x0
    5464:	85 21 ff fc 	l.lwz r9,0xfffffffc(r1)
    5468:	44 00 48 00 	l.jr r9
    546c:	84 41 ff f8 	l.lwz r2,0xfffffff8(r1)

00005470 <uart_putc>:
 * @return: OK if put out charset succeeded, others if failed.
 * @note: put out a charset.
 */
s32 uart_putc(char ch)
{
	if (uart_lock || uart_pin_not_used)
    5470:	18 80 00 01 	l.movhi r4,0x1
 * @ch: the charset which we want to put out.
 * @return: OK if put out charset succeeded, others if failed.
 * @note: put out a charset.
 */
s32 uart_putc(char ch)
{
    5474:	b8 63 00 18 	l.slli r3,r3,0x18
	if (uart_lock || uart_pin_not_used)
    5478:	a8 84 33 30 	l.ori r4,r4,0x3330
		return -EACCES;
    547c:	9d 60 ff f3 	l.addi r11,r0,0xfffffff3
 * @return: OK if put out charset succeeded, others if failed.
 * @note: put out a charset.
 */
s32 uart_putc(char ch)
{
	if (uart_lock || uart_pin_not_used)
    5480:	84 84 00 00 	l.lwz r4,0x0(r4)
    5484:	bc 24 00 00 	l.sfnei r4,0x0
    5488:	10 00 00 11 	l.bf 54cc <uart_putc+0x5c>
    548c:	b8 63 00 98 	l.srai r3,r3,0x18
    5490:	18 80 00 01 	l.movhi r4,0x1
    5494:	a8 84 34 30 	l.ori r4,r4,0x3430
    5498:	84 84 00 00 	l.lwz r4,0x0(r4)
    549c:	bc 24 00 00 	l.sfnei r4,0x0
    54a0:	10 00 00 0b 	l.bf 54cc <uart_putc+0x5c>
    54a4:	18 80 07 08 	l.movhi r4,0x708
		return -EACCES;

	while (!(readl(UART_REG_USR) & 2)) /* fifo is full, check again */
    54a8:	a8 84 00 7c 	l.ori r4,r4,0x7c
    54ac:	84 a4 00 00 	l.lwz r5,0x0(r4)
    54b0:	a4 a5 00 02 	l.andi r5,r5,0x2
    54b4:	bc 05 00 00 	l.sfeqi r5,0x0
    54b8:	13 ff ff fd 	l.bf 54ac <uart_putc+0x3c>
    54bc:	15 00 00 00 	l.nop 0x0
		;

	/* write out charset to transmit fifo */
	writel(ch, UART_REG_THR);
    54c0:	18 80 07 08 	l.movhi r4,0x708

	return OK;
    54c4:	9d 60 00 00 	l.addi r11,r0,0x0

	while (!(readl(UART_REG_USR) & 2)) /* fifo is full, check again */
		;

	/* write out charset to transmit fifo */
	writel(ch, UART_REG_THR);
    54c8:	d4 04 18 00 	l.sw 0x0(r4),r3

	return OK;
}
    54cc:	44 00 48 00 	l.jr r9
    54d0:	15 00 00 00 	l.nop 0x0

000054d4 <uart_get>:
 */
u32 uart_get(char *buf)
{
	u32 count = 0;

	if (uart_lock || uart_pin_not_used)
    54d4:	18 80 00 01 	l.movhi r4,0x1
		return -EACCES;
    54d8:	9d 60 ff f3 	l.addi r11,r0,0xfffffff3
 */
u32 uart_get(char *buf)
{
	u32 count = 0;

	if (uart_lock || uart_pin_not_used)
    54dc:	a8 84 33 30 	l.ori r4,r4,0x3330
    54e0:	84 84 00 00 	l.lwz r4,0x0(r4)
    54e4:	bc 24 00 00 	l.sfnei r4,0x0
    54e8:	10 00 00 13 	l.bf 5534 <uart_get+0x60>
    54ec:	15 00 00 00 	l.nop 0x0
    54f0:	18 80 00 01 	l.movhi r4,0x1
    54f4:	a8 84 34 30 	l.ori r4,r4,0x3430
    54f8:	84 84 00 00 	l.lwz r4,0x0(r4)
    54fc:	bc 24 00 00 	l.sfnei r4,0x0
    5500:	10 00 00 0d 	l.bf 5534 <uart_get+0x60>
    5504:	15 00 00 00 	l.nop 0x0
    5508:	a9 64 00 00 	l.ori r11,r4,0x0
		return -EACCES;

	while (readl(UART_REG_RFL)) {
    550c:	18 80 07 08 	l.movhi r4,0x708
    5510:	00 00 00 05 	l.j 5524 <uart_get+0x50>
    5514:	a8 a4 00 84 	l.ori r5,r4,0x84
		*buf++ = (char)(readl(UART_REG_RBR) & 0xff);
    5518:	84 e4 00 00 	l.lwz r7,0x0(r4)
		count++;
    551c:	9d 6b 00 01 	l.addi r11,r11,0x1

	if (uart_lock || uart_pin_not_used)
		return -EACCES;

	while (readl(UART_REG_RFL)) {
		*buf++ = (char)(readl(UART_REG_RBR) & 0xff);
    5520:	d8 06 38 00 	l.sb 0x0(r6),r7
	u32 count = 0;

	if (uart_lock || uart_pin_not_used)
		return -EACCES;

	while (readl(UART_REG_RFL)) {
    5524:	84 c5 00 00 	l.lwz r6,0x0(r5)
    5528:	bc 26 00 00 	l.sfnei r6,0x0
    552c:	13 ff ff fb 	l.bf 5518 <uart_get+0x44>
    5530:	e0 c3 58 00 	l.add r6,r3,r11
		*buf++ = (char)(readl(UART_REG_RBR) & 0xff);
		count++;
	}

	return count;
}
    5534:	44 00 48 00 	l.jr r9
    5538:	15 00 00 00 	l.nop 0x0

0000553c <uart_puts>:
 * @string: the string which we want to put out.
 * @return: OK if put out string succeeded, others if failed.
 * @note: put out a string.
 */
s32 uart_puts(const char *string)
{
    553c:	d7 e1 17 f8 	l.sw 0xfffffff8(r1),r2
    5540:	a8 43 00 00 	l.ori r2,r3,0x0
	if (uart_lock || uart_pin_not_used)
    5544:	18 60 00 01 	l.movhi r3,0x1
 * @string: the string which we want to put out.
 * @return: OK if put out string succeeded, others if failed.
 * @note: put out a string.
 */
s32 uart_puts(const char *string)
{
    5548:	d7 e1 4f fc 	l.sw 0xfffffffc(r1),r9
	if (uart_lock || uart_pin_not_used)
    554c:	a8 63 33 30 	l.ori r3,r3,0x3330
 * @string: the string which we want to put out.
 * @return: OK if put out string succeeded, others if failed.
 * @note: put out a string.
 */
s32 uart_puts(const char *string)
{
    5550:	9c 21 ff f8 	l.addi r1,r1,0xfffffff8
	if (uart_lock || uart_pin_not_used)
    5554:	84 63 00 00 	l.lwz r3,0x0(r3)
    5558:	bc 23 00 00 	l.sfnei r3,0x0
    555c:	10 00 00 15 	l.bf 55b0 <uart_puts+0x74>
    5560:	9d 60 ff f3 	l.addi r11,r0,0xfffffff3
    5564:	18 60 00 01 	l.movhi r3,0x1
    5568:	a8 63 34 30 	l.ori r3,r3,0x3430
    556c:	84 63 00 00 	l.lwz r3,0x0(r3)
    5570:	bc 23 00 00 	l.sfnei r3,0x0
    5574:	0c 00 00 0b 	l.bnf 55a0 <uart_puts+0x64>
    5578:	15 00 00 00 	l.nop 0x0
			uart_putc('\r');
		uart_putc(*string++);
	}

	return OK;
}
    557c:	00 00 00 0e 	l.j 55b4 <uart_puts+0x78>
    5580:	9c 21 00 08 	l.addi r1,r1,0x8
		return -EACCES;

	ASSERT(string != NULL);

	while (*string != '\0') {
		if (*string == '\n') /* if current character is '\n', insert output with '\r' */
    5584:	10 00 00 04 	l.bf 5594 <uart_puts+0x58>
    5588:	15 00 00 00 	l.nop 0x0
			uart_putc('\r');
    558c:	07 ff ff b9 	l.jal 5470 <uart_putc>
    5590:	9c 60 00 0d 	l.addi r3,r0,0xd
		uart_putc(*string++);
    5594:	90 62 00 00 	l.lbs r3,0x0(r2)
    5598:	07 ff ff b6 	l.jal 5470 <uart_putc>
    559c:	9c 42 00 01 	l.addi r2,r2,0x1
	if (uart_lock || uart_pin_not_used)
		return -EACCES;

	ASSERT(string != NULL);

	while (*string != '\0') {
    55a0:	91 62 00 00 	l.lbs r11,0x0(r2)
    55a4:	bc 2b 00 00 	l.sfnei r11,0x0
    55a8:	13 ff ff f7 	l.bf 5584 <uart_puts+0x48>
    55ac:	bc 2b 00 0a 	l.sfnei r11,0xa
			uart_putc('\r');
		uart_putc(*string++);
	}

	return OK;
}
    55b0:	9c 21 00 08 	l.addi r1,r1,0x8
    55b4:	85 21 ff fc 	l.lwz r9,0xfffffffc(r1)
    55b8:	44 00 48 00 	l.jr r9
    55bc:	84 41 ff f8 	l.lwz r2,0xfffffff8(r1)

000055c0 <uart_set_baudrate>:

s32 uart_set_baudrate(u32 rate)
{
    55c0:	d7 e1 17 f4 	l.sw 0xfffffff4(r1),r2
	u32 freq;
	u32 div;
	u32 lcr;
	u32 halt;

	if (uart_pin_not_used)
    55c4:	18 40 00 01 	l.movhi r2,0x1

	return OK;
}

s32 uart_set_baudrate(u32 rate)
{
    55c8:	d7 e1 77 f8 	l.sw 0xfffffff8(r1),r14
	u32 freq;
	u32 div;
	u32 lcr;
	u32 halt;

	if (uart_pin_not_used)
    55cc:	a8 42 34 30 	l.ori r2,r2,0x3430

	return OK;
}

s32 uart_set_baudrate(u32 rate)
{
    55d0:	d7 e1 4f fc 	l.sw 0xfffffffc(r1),r9
	u32 freq;
	u32 div;
	u32 lcr;
	u32 halt;

	if (uart_pin_not_used)
    55d4:	84 42 00 00 	l.lwz r2,0x0(r2)

	return OK;
}

s32 uart_set_baudrate(u32 rate)
{
    55d8:	9c 21 ff ec 	l.addi r1,r1,0xffffffec
    55dc:	a9 c3 00 00 	l.ori r14,r3,0x0
	u32 freq;
	u32 div;
	u32 lcr;
	u32 halt;

	if (uart_pin_not_used)
    55e0:	bc 22 00 00 	l.sfnei r2,0x0
    55e4:	10 00 00 3f 	l.bf 56e0 <uart_set_baudrate+0x120>
    55e8:	9d 60 ff f3 	l.addi r11,r0,0xfffffff3
		return -EACCES;

	/* update current uart baudrate */
	LOG("uart buadrate change from [%d] to [%d]\n", uart_rate, rate);
    55ec:	18 40 00 01 	l.movhi r2,0x1
    55f0:	18 80 00 01 	l.movhi r4,0x1
    55f4:	a8 42 34 34 	l.ori r2,r2,0x3434
    55f8:	a8 84 25 ae 	l.ori r4,r4,0x25ae
    55fc:	84 62 00 00 	l.lwz r3,0x0(r2)
    5600:	d4 01 70 04 	l.sw 0x4(r1),r14
    5604:	d4 01 18 00 	l.sw 0x0(r1),r3
    5608:	04 00 12 6c 	l.jal 9fb8 <debugger_printf>
    560c:	9c 60 00 02 	l.addi r3,r0,0x2
	uart_rate = rate;
    5610:	d4 02 70 00 	l.sw 0x0(r2),r14

	/* wait uart transmit fifo empty */
	while (readl(UART_REG_TFL))
    5614:	18 40 07 08 	l.movhi r2,0x708
    5618:	a8 42 00 80 	l.ori r2,r2,0x80
    561c:	84 62 00 00 	l.lwz r3,0x0(r2)
    5620:	bc 23 00 00 	l.sfnei r3,0x0
    5624:	13 ff ff fe 	l.bf 561c <uart_set_baudrate+0x5c>
    5628:	9c 60 00 24 	l.addi r3,r0,0x24
#ifdef CFG_FPGA_PLATFORM
	freq = 24000000;
#else
	freq = ccu_get_sclk_freq(CCU_SYS_CLK_APBS2);
#endif
	div  = (freq + (uart_rate << 3)) / (uart_rate << 4);
    562c:	18 40 00 01 	l.movhi r2,0x1

	/* reconfig uart baudrate */
#ifdef CFG_FPGA_PLATFORM
	freq = 24000000;
#else
	freq = ccu_get_sclk_freq(CCU_SYS_CLK_APBS2);
    5630:	04 00 33 66 	l.jal 123c8 <ccu_get_sclk_freq>
    5634:	a8 42 34 34 	l.ori r2,r2,0x3434
#endif
	div  = (freq + (uart_rate << 3)) / (uart_rate << 4);
    5638:	84 62 00 00 	l.lwz r3,0x0(r2)
    563c:	84 82 00 00 	l.lwz r4,0x0(r2)
    5640:	b8 63 00 03 	l.slli r3,r3,0x3
    5644:	b8 84 00 04 	l.slli r4,r4,0x4
	lcr  = readl(UART_REG_LCR);
    5648:	18 40 07 08 	l.movhi r2,0x708
#ifdef CFG_FPGA_PLATFORM
	freq = 24000000;
#else
	freq = ccu_get_sclk_freq(CCU_SYS_CLK_APBS2);
#endif
	div  = (freq + (uart_rate << 3)) / (uart_rate << 4);
    564c:	e0 6b 18 00 	l.add r3,r11,r3
    5650:	04 00 1a ee 	l.jal c208 <__udivsi3>
    5654:	a8 42 00 0c 	l.ori r2,r2,0xc
	lcr  = readl(UART_REG_LCR);
    5658:	84 a2 00 00 	l.lwz r5,0x0(r2)

	if (div == 0) /* avoid config invalid value */
    565c:	bc 0b 00 00 	l.sfeqi r11,0x0
    5660:	0c 00 00 03 	l.bnf 566c <uart_set_baudrate+0xac>
    5664:	18 80 07 08 	l.movhi r4,0x708
		div = 1;
    5668:	9d 60 00 01 	l.addi r11,r0,0x1
	/* enable change when busy */
	halt = readl(UART_REG_HALT) | 0x2;
	writel(halt, UART_REG_HALT);

	/* select the divsor latch low register and divsor latch high register */
	writel(lcr | 0x80, UART_REG_LCR);
    566c:	a8 c5 00 80 	l.ori r6,r5,0x80

	if (div == 0) /* avoid config invalid value */
		div = 1;

	/* enable change when busy */
	halt = readl(UART_REG_HALT) | 0x2;
    5670:	a8 64 00 a4 	l.ori r3,r4,0xa4
    5674:	84 43 00 00 	l.lwz r2,0x0(r3)
    5678:	a8 42 00 02 	l.ori r2,r2,0x2
	writel(halt, UART_REG_HALT);
    567c:	d4 03 10 00 	l.sw 0x0(r3),r2

	/* select the divsor latch low register and divsor latch high register */
	writel(lcr | 0x80, UART_REG_LCR);
    5680:	a8 44 00 0c 	l.ori r2,r4,0xc
    5684:	d4 02 30 00 	l.sw 0x0(r2),r6

	/* set divsor of uart */
	writel(div & 0xff, UART_REG_DLL);
    5688:	a4 cb 00 ff 	l.andi r6,r11,0xff
	writel((div >> 8) & 0xff, UART_REG_DLH);
    568c:	b9 6b 00 48 	l.srli r11,r11,0x8

	/* select the divsor latch low register and divsor latch high register */
	writel(lcr | 0x80, UART_REG_LCR);

	/* set divsor of uart */
	writel(div & 0xff, UART_REG_DLL);
    5690:	d4 04 30 00 	l.sw 0x0(r4),r6
	writel((div >> 8) & 0xff, UART_REG_DLH);
    5694:	a8 84 00 04 	l.ori r4,r4,0x4
    5698:	a5 6b 00 ff 	l.andi r11,r11,0xff
    569c:	d4 04 58 00 	l.sw 0x0(r4),r11

	/* unselect the divsor latch low register and divsor latch high register */
	writel(lcr & (~0x80), UART_REG_LCR);
    56a0:	9c 80 ff 7f 	l.addi r4,r0,0xffffff7f
    56a4:	e0 a5 20 03 	l.and r5,r5,r4
    56a8:	d4 02 28 00 	l.sw 0x0(r2),r5

	/* update baudrate */
	halt = readl(UART_REG_HALT) | 0x4;
    56ac:	84 43 00 00 	l.lwz r2,0x0(r3)
    56b0:	a8 42 00 04 	l.ori r2,r2,0x4
	writel(halt, UART_REG_HALT);
    56b4:	d4 03 10 00 	l.sw 0x0(r3),r2

	/* waiting update */
	while (readl(UART_REG_HALT) & 0x4)
    56b8:	85 63 00 00 	l.lwz r11,0x0(r3)
    56bc:	a5 6b 00 04 	l.andi r11,r11,0x4
    56c0:	bc 2b 00 00 	l.sfnei r11,0x0
    56c4:	13 ff ff fd 	l.bf 56b8 <uart_set_baudrate+0xf8>
    56c8:	15 00 00 00 	l.nop 0x0
		continue;

	/* disable change when busy */
	halt = readl(UART_REG_HALT) | 0x4;
    56cc:	84 43 00 00 	l.lwz r2,0x0(r3)
	writel(halt & (~0x2), UART_REG_HALT);
    56d0:	9c 80 ff fd 	l.addi r4,r0,0xfffffffd
	/* waiting update */
	while (readl(UART_REG_HALT) & 0x4)
		continue;

	/* disable change when busy */
	halt = readl(UART_REG_HALT) | 0x4;
    56d4:	a8 42 00 04 	l.ori r2,r2,0x4
	writel(halt & (~0x2), UART_REG_HALT);
    56d8:	e0 42 20 03 	l.and r2,r2,r4
    56dc:	d4 03 10 00 	l.sw 0x0(r3),r2

	return OK;
}
    56e0:	9c 21 00 14 	l.addi r1,r1,0x14
    56e4:	85 21 ff fc 	l.lwz r9,0xfffffffc(r1)
    56e8:	84 41 ff f4 	l.lwz r2,0xfffffff4(r1)
    56ec:	44 00 48 00 	l.jr r9
    56f0:	85 c1 ff f8 	l.lwz r14,0xfffffff8(r1)

000056f4 <uart_clkchangecb>:
volatile static u32 uart_rate;

#define IS_TX_FIFO_EMPTY  (readl(UART_REG_USR) & (0x1 << 2))

s32 uart_clkchangecb(u32 command, u32 freq)
{
    56f4:	d7 e1 17 f8 	l.sw 0xfffffff8(r1),r2
	if (uart_pin_not_used)
    56f8:	18 40 00 01 	l.movhi r2,0x1
volatile static u32 uart_rate;

#define IS_TX_FIFO_EMPTY  (readl(UART_REG_USR) & (0x1 << 2))

s32 uart_clkchangecb(u32 command, u32 freq)
{
    56fc:	d7 e1 4f fc 	l.sw 0xfffffffc(r1),r9
	if (uart_pin_not_used)
    5700:	a8 42 34 30 	l.ori r2,r2,0x3430
volatile static u32 uart_rate;

#define IS_TX_FIFO_EMPTY  (readl(UART_REG_USR) & (0x1 << 2))

s32 uart_clkchangecb(u32 command, u32 freq)
{
    5704:	9c 21 ff f8 	l.addi r1,r1,0xfffffff8
	if (uart_pin_not_used)
    5708:	84 42 00 00 	l.lwz r2,0x0(r2)
    570c:	bc 22 00 00 	l.sfnei r2,0x0
    5710:	10 00 00 1e 	l.bf 5788 <uart_clkchangecb+0x94>
    5714:	9d 60 ff f3 	l.addi r11,r0,0xfffffff3
		return -EACCES;

	switch (command) {
    5718:	bc 03 00 00 	l.sfeqi r3,0x0
    571c:	10 00 00 06 	l.bf 5734 <uart_clkchangecb+0x40>
    5720:	bc 03 00 01 	l.sfeqi r3,0x1
    5724:	0c 00 00 19 	l.bnf 5788 <uart_clkchangecb+0x94>
    5728:	9d 60 ff fd 	l.addi r11,r0,0xfffffffd
			return OK;
		}
	case CCU_CLK_CLKCHG_DONE:
		{
			/* reconfig uart current baudrate */
			uart_set_baudrate(uart_rate);
    572c:	00 00 00 0f 	l.j 5768 <uart_clkchangecb+0x74>
    5730:	18 60 00 01 	l.movhi r3,0x1
	case CCU_CLK_CLKCHG_REQ:
		{
			/* clock will be change */
			INF("uart source clock change request\n");
			/* wait uart transmit fifo empty */
			while (!IS_TX_FIFO_EMPTY)
    5734:	18 40 07 08 	l.movhi r2,0x708
    5738:	a8 42 00 7c 	l.ori r2,r2,0x7c
    573c:	84 62 00 00 	l.lwz r3,0x0(r2)
    5740:	a4 63 00 04 	l.andi r3,r3,0x4
    5744:	bc 03 00 00 	l.sfeqi r3,0x0
    5748:	13 ff ff fd 	l.bf 573c <uart_clkchangecb+0x48>
    574c:	9c 60 00 01 	l.addi r3,r0,0x1
				continue;
			/* lock uart */
			uart_lock = 1;
    5750:	18 40 00 01 	l.movhi r2,0x1
    5754:	a8 42 33 30 	l.ori r2,r2,0x3330
			return OK;
    5758:	9d 60 00 00 	l.addi r11,r0,0x0
			INF("uart source clock change request\n");
			/* wait uart transmit fifo empty */
			while (!IS_TX_FIFO_EMPTY)
				continue;
			/* lock uart */
			uart_lock = 1;
    575c:	d4 02 18 00 	l.sw 0x0(r2),r3
			return OK;
    5760:	00 00 00 0b 	l.j 578c <uart_clkchangecb+0x98>
    5764:	9c 21 00 08 	l.addi r1,r1,0x8
		}
	case CCU_CLK_CLKCHG_DONE:
		{
			/* reconfig uart current baudrate */
			uart_set_baudrate(uart_rate);
    5768:	a8 63 34 34 	l.ori r3,r3,0x3434
    576c:	84 63 00 00 	l.lwz r3,0x0(r3)
    5770:	07 ff ff 94 	l.jal 55c0 <uart_set_baudrate>
    5774:	15 00 00 00 	l.nop 0x0
			uart_lock = 0;
    5778:	18 60 00 01 	l.movhi r3,0x1
			INF("uart buadrate change done\n");
			return OK;
    577c:	a9 62 00 00 	l.ori r11,r2,0x0
		}
	case CCU_CLK_CLKCHG_DONE:
		{
			/* reconfig uart current baudrate */
			uart_set_baudrate(uart_rate);
			uart_lock = 0;
    5780:	a8 63 33 30 	l.ori r3,r3,0x3330
    5784:	d4 03 10 00 	l.sw 0x0(r3),r2
			return OK;
		}
	}

	return -ESRCH;
}
    5788:	9c 21 00 08 	l.addi r1,r1,0x8
    578c:	85 21 ff fc 	l.lwz r9,0xfffffffc(r1)
    5790:	44 00 48 00 	l.jr r9
    5794:	84 41 ff f8 	l.lwz r2,0xfffffff8(r1)

00005798 <uart_get_baudrate>:
}

u32 uart_get_baudrate(void)
{
	return uart_rate;
}
    5798:	18 60 00 01 	l.movhi r3,0x1
    579c:	a8 63 34 34 	l.ori r3,r3,0x3434
    57a0:	85 63 00 00 	l.lwz r11,0x0(r3)
    57a4:	44 00 48 00 	l.jr r9
    57a8:	15 00 00 00 	l.nop 0x0

000057ac <twi_clear_irq_flag>:
/* clear the interrupt flag */
static inline void twi_clear_irq_flag(void)
{
	unsigned int reg_val;

	reg_val = readl(TWI_CTR);
    57ac:	18 60 07 08 	l.movhi r3,0x708
    57b0:	a8 63 14 0c 	l.ori r3,r3,0x140c
    57b4:	84 83 00 00 	l.lwz r4,0x0(r3)
	reg_val |= TWI_INTFLAG;
    57b8:	a8 84 00 08 	l.ori r4,r4,0x8
	/* start and stop bit should be 0 */
	/*reg_val &= ~(TWI_MSTART | TWI_MSTOP); */
	writel(reg_val, TWI_CTR);
    57bc:	d4 03 20 00 	l.sw 0x0(r3),r4

	/* make sure that interrupt flag does really be cleared */
	readl(TWI_CTR);		/* read twice for delay */
    57c0:	84 83 00 00 	l.lwz r4,0x0(r3)
	while (readl(TWI_CTR) & TWI_INTFLAG)
    57c4:	84 83 00 00 	l.lwz r4,0x0(r3)
    57c8:	a4 84 00 08 	l.andi r4,r4,0x8
    57cc:	bc 24 00 00 	l.sfnei r4,0x0
    57d0:	13 ff ff fd 	l.bf 57c4 <twi_clear_irq_flag+0x18>
    57d4:	15 00 00 00 	l.nop 0x0
		;
}
    57d8:	44 00 48 00 	l.jr r9
    57dc:	15 00 00 00 	l.nop 0x0

000057e0 <twic_reset>:
}

static void twic_reset(void)
{
	/* reset twi comtroller */
	writel(1, TWI_SRR);
    57e0:	18 60 07 08 	l.movhi r3,0x708
    57e4:	9c 80 00 01 	l.addi r4,r0,0x1
    57e8:	a8 63 14 18 	l.ori r3,r3,0x1418
    57ec:	d4 03 20 00 	l.sw 0x0(r3),r4
	INF("reset\n");
	/* wait twi reset completing */
	while (readl(TWI_SRR))
    57f0:	84 83 00 00 	l.lwz r4,0x0(r3)
    57f4:	bc 24 00 00 	l.sfnei r4,0x0
    57f8:	13 ff ff fe 	l.bf 57f0 <twic_reset+0x10>
    57fc:	15 00 00 00 	l.nop 0x0
		;
}
    5800:	44 00 48 00 	l.jr r9
    5804:	15 00 00 00 	l.nop 0x0

00005808 <twi_start>:

static void twi_start(void)
{
	unsigned int value;

	value = readl(TWI_CTR);
    5808:	18 60 07 08 	l.movhi r3,0x708
	while (readl(TWI_SRR))
		;
}

static void twi_start(void)
{
    580c:	d7 e1 17 fc 	l.sw 0xfffffffc(r1),r2
	unsigned int value;

	value = readl(TWI_CTR);
    5810:	a8 63 14 0c 	l.ori r3,r3,0x140c
	value |= TWI_MSTART;
	value &= ~TWI_INTFLAG;
    5814:	9c 40 ff f7 	l.addi r2,r0,0xfffffff7

static void twi_start(void)
{
	unsigned int value;

	value = readl(TWI_CTR);
    5818:	84 83 00 00 	l.lwz r4,0x0(r3)
	while (readl(TWI_SRR))
		;
}

static void twi_start(void)
{
    581c:	9c 21 ff fc 	l.addi r1,r1,0xfffffffc
	unsigned int value;

	value = readl(TWI_CTR);
	value |= TWI_MSTART;
    5820:	a8 84 00 20 	l.ori r4,r4,0x20
	value &= ~TWI_INTFLAG;
    5824:	e0 84 10 03 	l.and r4,r4,r2
	writel(value, TWI_CTR);
    5828:	d4 03 20 00 	l.sw 0x0(r3),r4
}
    582c:	9c 21 00 04 	l.addi r1,r1,0x4
    5830:	44 00 48 00 	l.jr r9
    5834:	84 41 ff fc 	l.lwz r2,0xfffffffc(r1)

00005838 <twic_send_dummy_clock>:
	writel(reg_val, TWI_CTR);
}

static void twic_send_dummy_clock(void)
{
	unsigned int i = 10, timeout;
    5838:	9c 60 00 0a 	l.addi r3,r0,0xa

	INF("restore bus status to 0x3a\n");
	while (i--) {
		writel(0xa, TWI_LCR);
    583c:	18 a0 07 08 	l.movhi r5,0x708
	reg_val &= ~TWI_INTFLAG;
	writel(reg_val, TWI_CTR);
}

static void twic_send_dummy_clock(void)
{
    5840:	d7 e1 4f fc 	l.sw 0xfffffffc(r1),r9
	unsigned int i = 10, timeout;

	INF("restore bus status to 0x3a\n");
	while (i--) {
		writel(0xa, TWI_LCR);
    5844:	a8 a5 14 20 	l.ori r5,r5,0x1420
	reg_val &= ~TWI_INTFLAG;
	writel(reg_val, TWI_CTR);
}

static void twic_send_dummy_clock(void)
{
    5848:	9c 21 ff f8 	l.addi r1,r1,0xfffffff8
	unsigned int i = 10, timeout;

	INF("restore bus status to 0x3a\n");
	while (i--) {
    584c:	00 00 00 03 	l.j 5858 <twic_send_dummy_clock+0x20>
    5850:	a8 83 00 00 	l.ori r4,r3,0x0
		writel(0xa, TWI_LCR);
    5854:	d4 05 20 00 	l.sw 0x0(r5),r4
static void twic_send_dummy_clock(void)
{
	unsigned int i = 10, timeout;

	INF("restore bus status to 0x3a\n");
	while (i--) {
    5858:	9c 63 ff ff 	l.addi r3,r3,0xffffffff
    585c:	bc 23 ff ff 	l.sfnei r3,0xffffffff
    5860:	13 ff ff fd 	l.bf 5854 <twic_send_dummy_clock+0x1c>
    5864:	15 00 00 00 	l.nop 0x0
		writel(0xa, TWI_LCR);
		for (timeout = 1000; timeout; timeout--)
			;
	}
	writel(0xa, TWI_LCR);
    5868:	18 60 07 08 	l.movhi r3,0x708
    586c:	9c 80 00 0a 	l.addi r4,r0,0xa
    5870:	a8 63 14 20 	l.ori r3,r3,0x1420
    5874:	d4 03 20 00 	l.sw 0x0(r3),r4
	if (readl(TWI_LCR) != 0x3a)
    5878:	84 83 00 00 	l.lwz r4,0x0(r3)
    587c:	bc 04 00 3a 	l.sfeqi r4,0x3a
    5880:	10 00 00 08 	l.bf 58a0 <twic_send_dummy_clock+0x68>
    5884:	15 00 00 00 	l.nop 0x0
		ERR("bus status err: 0x%x\n", readl(TWI_LCR));
    5888:	84 63 00 00 	l.lwz r3,0x0(r3)
    588c:	18 80 00 01 	l.movhi r4,0x1
    5890:	d4 01 18 00 	l.sw 0x0(r1),r3
    5894:	a8 84 25 d6 	l.ori r4,r4,0x25d6
    5898:	04 00 11 c8 	l.jal 9fb8 <debugger_printf>
    589c:	9c 60 00 08 	l.addi r3,r0,0x8

	writel(1, TWI_SRR);
    58a0:	18 60 07 08 	l.movhi r3,0x708
    58a4:	9c 80 00 01 	l.addi r4,r0,0x1
    58a8:	a8 63 14 18 	l.ori r3,r3,0x1418
    58ac:	d4 03 20 00 	l.sw 0x0(r3),r4
}
    58b0:	9c 21 00 08 	l.addi r1,r1,0x8
    58b4:	85 21 ff fc 	l.lwz r9,0xfffffffc(r1)
    58b8:	44 00 48 00 	l.jr r9
    58bc:	15 00 00 00 	l.nop 0x0

000058c0 <twic_set_sclk.clone.0>:
/*
 * twic_set_sclk() - set twi clock to clk.
 *
 * @clk: the clock want to set.
 */
static void twic_set_sclk(u32 clk)
    58c0:	d7 e1 17 e8 	l.sw 0xffffffe8(r1),r2
    58c4:	d7 e1 77 ec 	l.sw 0xffffffec(r1),r14
    58c8:	d7 e1 87 f0 	l.sw 0xfffffff0(r1),r16
    58cc:	d7 e1 a7 f8 	l.sw 0xfffffff8(r1),r20
    58d0:	d7 e1 4f fc 	l.sw 0xfffffffc(r1),r9
    58d4:	d7 e1 97 f4 	l.sw 0xfffffff4(r1),r18
	u32 sclk_real = 0;
	u32 src_clk = 0;
	u8 pow_clk_n = 1;
	u32 divider = 0;

	src_clk = ccu_get_sclk_freq(CCU_SYS_CLK_APBS2);
    58d8:	9c 60 00 24 	l.addi r3,r0,0x24
/*
 * twic_set_sclk() - set twi clock to clk.
 *
 * @clk: the clock want to set.
 */
static void twic_set_sclk(u32 clk)
    58dc:	9c 21 ff e8 	l.addi r1,r1,0xffffffe8
	u32 sclk_real = 0;
	u32 src_clk = 0;
	u8 pow_clk_n = 1;
	u32 divider = 0;

	src_clk = ccu_get_sclk_freq(CCU_SYS_CLK_APBS2);
    58e0:	04 00 32 ba 	l.jal 123c8 <ccu_get_sclk_freq>
    58e4:	9c 40 00 00 	l.addi r2,r0,0x0
	clk_n = 0;
	goto out;
#else
	u32 sclk_real = 0;
	u32 src_clk = 0;
	u8 pow_clk_n = 1;
    58e8:	9e 00 00 01 	l.addi r16,r0,0x1
	u32 divider = 0;

	src_clk = ccu_get_sclk_freq(CCU_SYS_CLK_APBS2);
    58ec:	aa 8b 00 00 	l.ori r20,r11,0x0
 * @clk: the clock want to set.
 */
static void twic_set_sclk(u32 clk)
{
	u8 clk_m = 0;
	u8 clk_n = 0;
    58f0:	a9 c2 00 00 	l.ori r14,r2,0x0
	src_clk = ccu_get_sclk_freq(CCU_SYS_CLK_APBS2);

	divider = src_clk / clk;
	clk_m = 0;
	while (clk_n < 8) {
		clk_n++;
    58f4:	9d ce 00 01 	l.addi r14,r14,0x1
		pow_clk_n *= 2;
    58f8:	e2 10 80 00 	l.add r16,r16,r16
	src_clk = ccu_get_sclk_freq(CCU_SYS_CLK_APBS2);

	divider = src_clk / clk;
	clk_m = 0;
	while (clk_n < 8) {
		clk_n++;
    58fc:	a5 ce 00 ff 	l.andi r14,r14,0xff
		pow_clk_n *= 2;
    5900:	00 00 00 0e 	l.j 5938 <twic_set_sclk.clone.0+0x78>
    5904:	a6 10 00 ff 	l.andi r16,r16,0xff
		while (clk_m < 16) {
			sclk_real = src_clk / (clk_m + 1) / pow_clk_n / 10;
    5908:	a8 74 00 00 	l.ori r3,r20,0x0
    590c:	04 00 1a 3f 	l.jal c208 <__udivsi3>
    5910:	a8 92 00 00 	l.ori r4,r18,0x0
    5914:	a8 90 00 00 	l.ori r4,r16,0x0
    5918:	04 00 1a 3c 	l.jal c208 <__udivsi3>
    591c:	a8 6b 00 00 	l.ori r3,r11,0x0
			if (sclk_real <= clk)
    5920:	18 60 00 1e 	l.movhi r3,0x1e
    5924:	a8 63 84 89 	l.ori r3,r3,0x8489
    5928:	e4 ab 18 00 	l.sfleu r11,r3
    592c:	10 00 00 0a 	l.bf 5954 <twic_set_sclk.clone.0+0x94>
    5930:	b8 42 00 03 	l.slli r2,r2,0x3
				goto out;
			else
				clk_m++;
    5934:	a4 52 00 ff 	l.andi r2,r18,0xff
	divider = src_clk / clk;
	clk_m = 0;
	while (clk_n < 8) {
		clk_n++;
		pow_clk_n *= 2;
		while (clk_m < 16) {
    5938:	bc a2 00 0f 	l.sfleui r2,0xf
    593c:	13 ff ff f3 	l.bf 5908 <twic_set_sclk.clone.0+0x48>
    5940:	9e 42 00 01 	l.addi r18,r2,0x1

	src_clk = ccu_get_sclk_freq(CCU_SYS_CLK_APBS2);

	divider = src_clk / clk;
	clk_m = 0;
	while (clk_n < 8) {
    5944:	bc 2e 00 08 	l.sfnei r14,0x8
    5948:	13 ff ff eb 	l.bf 58f4 <twic_set_sclk.clone.0+0x34>
    594c:	15 00 00 00 	l.nop 0x0
	}
#endif

      out:
	/* set clock control register */
	writel((clk_m << 3) | clk_n, TWI_CKR);
    5950:	b8 42 00 03 	l.slli r2,r2,0x3
    5954:	18 60 07 08 	l.movhi r3,0x708
    5958:	e1 c2 70 04 	l.or r14,r2,r14
    595c:	a8 63 14 14 	l.ori r3,r3,0x1414
    5960:	d4 03 70 00 	l.sw 0x0(r3),r14
	INF("m = %x, n = %x, req_sclk = %d, real_clk = %d\n", clk_m, clk_n, clk, sclk_real);
}
    5964:	9c 21 00 18 	l.addi r1,r1,0x18
    5968:	85 21 ff fc 	l.lwz r9,0xfffffffc(r1)
    596c:	84 41 ff e8 	l.lwz r2,0xffffffe8(r1)
    5970:	85 c1 ff ec 	l.lwz r14,0xffffffec(r1)
    5974:	86 01 ff f0 	l.lwz r16,0xfffffff0(r1)
    5978:	86 41 ff f4 	l.lwz r18,0xfffffff4(r1)
    597c:	44 00 48 00 	l.jr r9
    5980:	86 81 ff f8 	l.lwz r20,0xfffffff8(r1)

00005984 <twi_clkchangecb>:

s32 twi_clkchangecb(u32 command, u32 freq)
{
    5984:	d7 e1 4f fc 	l.sw 0xfffffffc(r1),r9
    5988:	d7 e1 17 f8 	l.sw 0xfffffff8(r1),r2
	switch (command) {
    598c:	bc 03 00 00 	l.sfeqi r3,0x0
    5990:	10 00 00 07 	l.bf 59ac <twi_clkchangecb+0x28>
    5994:	9c 21 ff f8 	l.addi r1,r1,0xfffffff8
    5998:	bc 03 00 01 	l.sfeqi r3,0x1
    599c:	0c 00 00 11 	l.bnf 59e0 <twi_clkchangecb+0x5c>
    59a0:	9d 60 ff dc 	l.addi r11,r0,0xffffffdc
    59a4:	00 00 00 09 	l.j 59c8 <twi_clkchangecb+0x44>
    59a8:	15 00 00 00 	l.nop 0x0
		{
			/* check twi is busy now
			 * ...
			 * clock will be change, lock twi interface
			 */
			twi_lock = 1;
    59ac:	18 80 00 01 	l.movhi r4,0x1
    59b0:	9c 40 00 01 	l.addi r2,r0,0x1
    59b4:	a8 84 34 38 	l.ori r4,r4,0x3438
			INF("twi clk change request\n");
			return OK;
    59b8:	a9 63 00 00 	l.ori r11,r3,0x0
		{
			/* check twi is busy now
			 * ...
			 * clock will be change, lock twi interface
			 */
			twi_lock = 1;
    59bc:	d8 04 10 00 	l.sb 0x0(r4),r2
			INF("twi clk change request\n");
			return OK;
    59c0:	00 00 00 09 	l.j 59e4 <twi_clkchangecb+0x60>
    59c4:	9c 21 00 08 	l.addi r1,r1,0x8
		{
			/*
			 * clock change finish, re-config twi clock,
			 * maybe re-config rsb clock should do somethings?
			 */
			twic_set_sclk(TWI_CLOCK_FREQ);
    59c8:	07 ff ff be 	l.jal 58c0 <twic_set_sclk.clone.0>
    59cc:	9c 40 00 00 	l.addi r2,r0,0x0

			/* unlock twi interface */
			twi_lock = 0;
    59d0:	18 60 00 01 	l.movhi r3,0x1
    59d4:	a8 63 34 38 	l.ori r3,r3,0x3438
			INF("twi clk change done\n");
			return OK;
    59d8:	9d 60 00 00 	l.addi r11,r0,0x0
			 * maybe re-config rsb clock should do somethings?
			 */
			twic_set_sclk(TWI_CLOCK_FREQ);

			/* unlock twi interface */
			twi_lock = 0;
    59dc:	d8 03 10 00 	l.sb 0x0(r3),r2
			break;
		}
	}

	return -EFAIL;
}
    59e0:	9c 21 00 08 	l.addi r1,r1,0x8
    59e4:	85 21 ff fc 	l.lwz r9,0xfffffffc(r1)
    59e8:	44 00 48 00 	l.jr r9
    59ec:	84 41 ff f8 	l.lwz r2,0xfffffff8(r1)

000059f0 <twi_init>:

s32 twi_init(void)
{
    59f0:	d7 e1 4f fc 	l.sw 0xfffffffc(r1),r9
    59f4:	d7 e1 17 f8 	l.sw 0xfffffff8(r1),r2
	//if (arisc_para.power_mode != POWER_MODE_AXP) {
	//	twi_lock = TRUE;
	//	return OK;
	//}

	pin_set_multi_sel(PIN_GRP_PL, 0, 2);	/* PL0 config as TWI_SCK */
    59f8:	9c 60 00 01 	l.addi r3,r0,0x1

	return -EFAIL;
}

s32 twi_init(void)
{
    59fc:	9c 21 ff f8 	l.addi r1,r1,0xfffffff8
	//if (arisc_para.power_mode != POWER_MODE_AXP) {
	//	twi_lock = TRUE;
	//	return OK;
	//}

	pin_set_multi_sel(PIN_GRP_PL, 0, 2);	/* PL0 config as TWI_SCK */
    5a00:	9c 80 00 00 	l.addi r4,r0,0x0
    5a04:	9c a0 00 02 	l.addi r5,r0,0x2
    5a08:	07 ff fb 90 	l.jal 4848 <pin_set_multi_sel>
    5a0c:	18 40 07 08 	l.movhi r2,0x708
	pin_set_pull(PIN_GRP_PL, 0, PIN_PULL_UP);	/* TWI_SCK pull-up */
    5a10:	9c 60 00 01 	l.addi r3,r0,0x1
    5a14:	9c 80 00 00 	l.addi r4,r0,0x0
    5a18:	07 ff fb aa 	l.jal 48c0 <pin_set_pull>
    5a1c:	a8 a3 00 00 	l.ori r5,r3,0x0
	pin_set_drive(PIN_GRP_PL, 0, PIN_MULTI_DRIVE_0);	/* TWI_SCK drive level 2 */
    5a20:	9c 80 00 00 	l.addi r4,r0,0x0
    5a24:	9c 60 00 01 	l.addi r3,r0,0x1
    5a28:	07 ff fb c4 	l.jal 4938 <pin_set_drive>
    5a2c:	a8 a4 00 00 	l.ori r5,r4,0x0

	pin_set_multi_sel(PIN_GRP_PL, 1, 2);	/* PL1 config as TWI_SDA */
    5a30:	9c 60 00 01 	l.addi r3,r0,0x1
    5a34:	9c a0 00 02 	l.addi r5,r0,0x2
    5a38:	07 ff fb 84 	l.jal 4848 <pin_set_multi_sel>
    5a3c:	a8 83 00 00 	l.ori r4,r3,0x0
	pin_set_pull(PIN_GRP_PL, 1, PIN_PULL_UP);	/* TWI_SDA pull-up */
    5a40:	9c 60 00 01 	l.addi r3,r0,0x1
    5a44:	a8 83 00 00 	l.ori r4,r3,0x0
    5a48:	07 ff fb 9e 	l.jal 48c0 <pin_set_pull>
    5a4c:	a8 a3 00 00 	l.ori r5,r3,0x0
	pin_set_drive(PIN_GRP_PL, 1, PIN_MULTI_DRIVE_0);	/* TWI_SDA drive level 2 */
    5a50:	9c 60 00 01 	l.addi r3,r0,0x1
    5a54:	9c a0 00 00 	l.addi r5,r0,0x0
    5a58:	07 ff fb b8 	l.jal 4938 <pin_set_drive>
    5a5c:	a8 83 00 00 	l.ori r4,r3,0x0

	/* initialize twi clock */
	/* ccu_set_mclk_reset(CCU_MOD_CLK_R_TWI_1, CCU_CLK_RESET); */
	ccu_set_mclk_onoff(CCU_MOD_CLK_R_TWI, CCU_CLK_ON);
    5a60:	9c 60 00 22 	l.addi r3,r0,0x22
    5a64:	04 00 30 14 	l.jal 11ab4 <ccu_set_mclk_onoff>
    5a68:	9c 80 00 01 	l.addi r4,r0,0x1
	ccu_set_mclk_reset(CCU_MOD_CLK_R_TWI, CCU_CLK_NRESET);
    5a6c:	9c 60 00 22 	l.addi r3,r0,0x22
    5a70:	04 00 31 93 	l.jal 120bc <ccu_set_mclk_reset>
    5a74:	9c 80 00 01 	l.addi r4,r0,0x1
	twic_set_sclk(TWI_CLOCK_FREQ);
    5a78:	07 ff ff 92 	l.jal 58c0 <twic_set_sclk.clone.0>
    5a7c:	15 00 00 00 	l.nop 0x0
	writel(TWI_BUS_ENB | TWI_AACK, TWI_CTR);
    5a80:	a8 62 14 0c 	l.ori r3,r2,0x140c
    5a84:	9c 80 00 44 	l.addi r4,r0,0x44
	twic_reset();

	/* twi bus state is not reset value, try to restore it */
	if (readl(TWI_LCR) != 0x3a)
    5a88:	a8 42 14 20 	l.ori r2,r2,0x1420
	/* initialize twi clock */
	/* ccu_set_mclk_reset(CCU_MOD_CLK_R_TWI_1, CCU_CLK_RESET); */
	ccu_set_mclk_onoff(CCU_MOD_CLK_R_TWI, CCU_CLK_ON);
	ccu_set_mclk_reset(CCU_MOD_CLK_R_TWI, CCU_CLK_NRESET);
	twic_set_sclk(TWI_CLOCK_FREQ);
	writel(TWI_BUS_ENB | TWI_AACK, TWI_CTR);
    5a8c:	d4 03 20 00 	l.sw 0x0(r3),r4
	twic_reset();
    5a90:	07 ff ff 54 	l.jal 57e0 <twic_reset>
    5a94:	15 00 00 00 	l.nop 0x0

	/* twi bus state is not reset value, try to restore it */
	if (readl(TWI_LCR) != 0x3a)
    5a98:	84 42 00 00 	l.lwz r2,0x0(r2)
    5a9c:	bc 02 00 3a 	l.sfeqi r2,0x3a
    5aa0:	10 00 00 04 	l.bf 5ab0 <twi_init+0xc0>
    5aa4:	18 40 00 01 	l.movhi r2,0x1
		twic_send_dummy_clock();
    5aa8:	07 ff ff 64 	l.jal 5838 <twic_send_dummy_clock>
    5aac:	15 00 00 00 	l.nop 0x0

	twi_lock = 0;
    5ab0:	9c 60 00 00 	l.addi r3,r0,0x0
    5ab4:	a8 42 34 38 	l.ori r2,r2,0x3438
    5ab8:	d8 02 18 00 	l.sb 0x0(r2),r3

#ifdef TWI_DEBUG
	printreg();
#endif
	if (readl(TWI_LCR) == 0x3a)
    5abc:	18 40 07 08 	l.movhi r2,0x708
    5ac0:	a8 42 14 20 	l.ori r2,r2,0x1420
    5ac4:	84 42 00 00 	l.lwz r2,0x0(r2)
    5ac8:	bc 22 00 3a 	l.sfnei r2,0x3a
    5acc:	10 00 00 05 	l.bf 5ae0 <twi_init+0xf0>
    5ad0:	18 80 00 01 	l.movhi r4,0x1
		LOG("init twi succeeded\n");
    5ad4:	9c 60 00 02 	l.addi r3,r0,0x2
    5ad8:	00 00 00 05 	l.j 5aec <twi_init+0xfc>
    5adc:	a8 84 25 f0 	l.ori r4,r4,0x25f0
	else
		ERR("init twi failed!\n");
    5ae0:	18 80 00 01 	l.movhi r4,0x1
    5ae4:	9c 60 00 08 	l.addi r3,r0,0x8
    5ae8:	a8 84 26 04 	l.ori r4,r4,0x2604
    5aec:	04 00 11 33 	l.jal 9fb8 <debugger_printf>
    5af0:	15 00 00 00 	l.nop 0x0

	return OK;
}
    5af4:	9c 21 00 08 	l.addi r1,r1,0x8
    5af8:	9d 60 00 00 	l.addi r11,r0,0x0
    5afc:	85 21 ff fc 	l.lwz r9,0xfffffffc(r1)
    5b00:	44 00 48 00 	l.jr r9
    5b04:	84 41 ff f8 	l.lwz r2,0xfffffff8(r1)

00005b08 <twi_exit>:
s32 twi_exit(void)
{
	/* softreset twi module  */

	return OK;
}
    5b08:	44 00 48 00 	l.jr r9
    5b0c:	9d 60 00 00 	l.addi r11,r0,0x0

00005b10 <twi_byte_rw>:
 * @data: pointer to the data to be read or write
 * @return: EPDK_OK,      byte read or write successed;
 *          EPDK_FAIL,    btye read or write failed!
 */
s32 twi_byte_rw(twi_rw_type_e op, u8 saddr, u8 baddr, u8 *data, u32 len)
{
    5b10:	d7 e1 17 d8 	l.sw 0xffffffd8(r1),r2
	volatile unsigned int state;
	unsigned int timeout;
	int ret = -1;
	s32 cpsr;

	if (twi_lock)
    5b14:	18 40 00 01 	l.movhi r2,0x1
 * @data: pointer to the data to be read or write
 * @return: EPDK_OK,      byte read or write successed;
 *          EPDK_FAIL,    btye read or write failed!
 */
s32 twi_byte_rw(twi_rw_type_e op, u8 saddr, u8 baddr, u8 *data, u32 len)
{
    5b18:	d7 e1 77 dc 	l.sw 0xffffffdc(r1),r14
    5b1c:	d7 e1 87 e0 	l.sw 0xffffffe0(r1),r16
    5b20:	d7 e1 b7 ec 	l.sw 0xffffffec(r1),r22
    5b24:	d7 e1 d7 f4 	l.sw 0xfffffff4(r1),r26
    5b28:	d7 e1 e7 f8 	l.sw 0xfffffff8(r1),r28
    5b2c:	d7 e1 4f fc 	l.sw 0xfffffffc(r1),r9
    5b30:	d7 e1 97 e4 	l.sw 0xffffffe4(r1),r18
    5b34:	d7 e1 a7 e8 	l.sw 0xffffffe8(r1),r20
    5b38:	d7 e1 c7 f0 	l.sw 0xfffffff0(r1),r24
	volatile unsigned int state;
	unsigned int timeout;
	int ret = -1;
	s32 cpsr;

	if (twi_lock)
    5b3c:	a8 42 34 38 	l.ori r2,r2,0x3438
 * @data: pointer to the data to be read or write
 * @return: EPDK_OK,      byte read or write successed;
 *          EPDK_FAIL,    btye read or write failed!
 */
s32 twi_byte_rw(twi_rw_type_e op, u8 saddr, u8 baddr, u8 *data, u32 len)
{
    5b40:	9c 21 ff d0 	l.addi r1,r1,0xffffffd0
	volatile unsigned int state;
	unsigned int timeout;
	int ret = -1;
	s32 cpsr;

	if (twi_lock)
    5b44:	8e 82 00 00 	l.lbz r20,0x0(r2)
    5b48:	ba 94 00 18 	l.slli r20,r20,0x18
 * @data: pointer to the data to be read or write
 * @return: EPDK_OK,      byte read or write successed;
 *          EPDK_FAIL,    btye read or write failed!
 */
s32 twi_byte_rw(twi_rw_type_e op, u8 saddr, u8 baddr, u8 *data, u32 len)
{
    5b4c:	ab 43 00 00 	l.ori r26,r3,0x0
    5b50:	aa 06 00 00 	l.ori r16,r6,0x0
	volatile unsigned int state;
	unsigned int timeout;
	int ret = -1;
	s32 cpsr;

	if (twi_lock)
    5b54:	ba 94 00 98 	l.srai r20,r20,0x18
 * @data: pointer to the data to be read or write
 * @return: EPDK_OK,      byte read or write successed;
 *          EPDK_FAIL,    btye read or write failed!
 */
s32 twi_byte_rw(twi_rw_type_e op, u8 saddr, u8 baddr, u8 *data, u32 len)
{
    5b58:	a9 c7 00 00 	l.ori r14,r7,0x0
    5b5c:	a6 c4 00 ff 	l.andi r22,r4,0xff
    5b60:	a7 85 00 ff 	l.andi r28,r5,0xff
	volatile unsigned int state;
	unsigned int timeout;
	int ret = -1;
	s32 cpsr;

	if (twi_lock)
    5b64:	bc 34 00 00 	l.sfnei r20,0x0
    5b68:	10 00 01 87 	l.bf 6184 <twi_byte_rw+0x674>
    5b6c:	9c 40 ff f3 	l.addi r2,r0,0xfffffff3
		return -EACCES;

	if (len > 4)
    5b70:	bc 47 00 04 	l.sfgtui r7,0x4
    5b74:	10 00 01 84 	l.bf 6184 <twi_byte_rw+0x674>
    5b78:	9c 40 ff ea 	l.addi r2,r0,0xffffffea

static inline void twi_enable_ack(void)
{
	unsigned int reg_val;

	reg_val = readl(TWI_CTR);
    5b7c:	1a 40 07 08 	l.movhi r18,0x708
	reg_val |= TWI_AACK;
	reg_val &= ~TWI_INTFLAG;
    5b80:	9c 80 ff f7 	l.addi r4,r0,0xfffffff7

static inline void twi_enable_ack(void)
{
	unsigned int reg_val;

	reg_val = readl(TWI_CTR);
    5b84:	a8 52 14 0c 	l.ori r2,r18,0x140c
    5b88:	84 62 00 00 	l.lwz r3,0x0(r2)
	reg_val |= TWI_AACK;
    5b8c:	a8 63 00 04 	l.ori r3,r3,0x4
	reg_val &= ~TWI_INTFLAG;
    5b90:	e0 63 20 03 	l.and r3,r3,r4
	writel(reg_val, TWI_CTR);
    5b94:	d4 02 18 00 	l.sw 0x0(r2),r3
	readl(TWI_CTR);
    5b98:	84 62 00 00 	l.lwz r3,0x0(r2)
	readl(TWI_CTR);
    5b9c:	84 62 00 00 	l.lwz r3,0x0(r2)
	if (len > 4)
		return -EINVAL;

	twi_enable_ack();	/* enable ACK first */

	cpsr = cpu_disable_int();
    5ba0:	04 00 18 81 	l.jal bda4 <cpu_disable_int>
    5ba4:	15 00 00 00 	l.nop 0x0
	writel(0, TWI_EFR);
    5ba8:	a8 72 14 1c 	l.ori r3,r18,0x141c
	state = (readl(TWI_STR) & 0x0ff);
    5bac:	aa 52 14 10 	l.ori r18,r18,0x1410
		return -EINVAL;

	twi_enable_ack();	/* enable ACK first */

	cpsr = cpu_disable_int();
	writel(0, TWI_EFR);
    5bb0:	d4 03 a0 00 	l.sw 0x0(r3),r20
	if (len > 4)
		return -EINVAL;

	twi_enable_ack();	/* enable ACK first */

	cpsr = cpu_disable_int();
    5bb4:	ab 0b 00 00 	l.ori r24,r11,0x0
	writel(0, TWI_EFR);
	state = (readl(TWI_STR) & 0x0ff);
    5bb8:	84 72 00 00 	l.lwz r3,0x0(r18)
    5bbc:	a4 63 00 ff 	l.andi r3,r3,0xff
    5bc0:	d4 01 18 04 	l.sw 0x4(r1),r3
	if (state != 0xf8) {
    5bc4:	84 61 00 04 	l.lwz r3,0x4(r1)
    5bc8:	bc 03 00 f8 	l.sfeqi r3,0xf8
    5bcc:	10 00 00 08 	l.bf 5bec <twi_byte_rw+0xdc>
    5bd0:	15 00 00 00 	l.nop 0x0
		ERR("e1:%x\n", state);
    5bd4:	84 41 00 04 	l.lwz r2,0x4(r1)
    5bd8:	18 80 00 01 	l.movhi r4,0x1
    5bdc:	d4 01 10 00 	l.sw 0x0(r1),r2
    5be0:	9c 60 00 08 	l.addi r3,r0,0x8
    5be4:	00 00 01 0c 	l.j 6014 <twi_byte_rw+0x504>
    5be8:	a8 84 26 1a 	l.ori r4,r4,0x261a
	 *   7      6       5     4       3       2    1    0
	 * INT_EN  BUS_EN  START  STOP  INT_FLAG  ACK  NOT  NOT
	 */

	/* step1. Send Start */
	twi_start();
    5bec:	07 ff ff 07 	l.jal 5808 <twi_start>
    5bf0:	15 00 00 00 	l.nop 0x0

	timeout = TWI_CHECK_TIMEOUT;
    5bf4:	9c c0 07 ff 	l.addi r6,r0,0x7ff
	while ((!(readl(TWI_CTR) & TWI_INTFLAG)) && (--timeout))	/* wait for flg set */
    5bf8:	84 62 00 00 	l.lwz r3,0x0(r2)
    5bfc:	a4 63 00 08 	l.andi r3,r3,0x8
    5c00:	bc 23 00 00 	l.sfnei r3,0x0
    5c04:	10 00 00 08 	l.bf 5c24 <twi_byte_rw+0x114>
    5c08:	1a 40 07 08 	l.movhi r18,0x708
    5c0c:	9c c6 ff ff 	l.addi r6,r6,0xffffffff
    5c10:	bc 26 00 00 	l.sfnei r6,0x0
    5c14:	13 ff ff f9 	l.bf 5bf8 <twi_byte_rw+0xe8>
    5c18:	18 80 00 01 	l.movhi r4,0x1
		;
	if (timeout == 0) {
		ERR("to0\n");
    5c1c:	00 00 00 06 	l.j 5c34 <twi_byte_rw+0x124>
    5c20:	9c 60 00 08 	l.addi r3,r0,0x8
	twi_start();

	timeout = TWI_CHECK_TIMEOUT;
	while ((!(readl(TWI_CTR) & TWI_INTFLAG)) && (--timeout))	/* wait for flg set */
		;
	if (timeout == 0) {
    5c24:	bc 26 00 00 	l.sfnei r6,0x0
    5c28:	10 00 00 08 	l.bf 5c48 <twi_byte_rw+0x138>
    5c2c:	18 80 00 01 	l.movhi r4,0x1
		ERR("to0\n");
    5c30:	9c 60 00 08 	l.addi r3,r0,0x8
    5c34:	a8 84 26 25 	l.ori r4,r4,0x2625
    5c38:	04 00 10 e0 	l.jal 9fb8 <debugger_printf>
    5c3c:	9c 40 ff ff 	l.addi r2,r0,0xffffffff
		goto stop_out;
    5c40:	00 00 01 0e 	l.j 6078 <twi_byte_rw+0x568>
    5c44:	19 c0 07 08 	l.movhi r14,0x708
	}

	state = readl(TWI_STR);
    5c48:	a8 52 14 10 	l.ori r2,r18,0x1410
    5c4c:	84 42 00 00 	l.lwz r2,0x0(r2)
    5c50:	d4 01 10 04 	l.sw 0x4(r1),r2
	if (state != 0x08) {
    5c54:	84 41 00 04 	l.lwz r2,0x4(r1)
    5c58:	bc 02 00 08 	l.sfeqi r2,0x8
    5c5c:	10 00 00 08 	l.bf 5c7c <twi_byte_rw+0x16c>
    5c60:	15 00 00 00 	l.nop 0x0
		ERR("e3:%x\n", state);
    5c64:	84 41 00 04 	l.lwz r2,0x4(r1)
    5c68:	18 80 00 01 	l.movhi r4,0x1
    5c6c:	d4 01 10 00 	l.sw 0x0(r1),r2
    5c70:	9c 60 00 08 	l.addi r3,r0,0x8
    5c74:	00 00 00 e8 	l.j 6014 <twi_byte_rw+0x504>
    5c78:	a8 84 26 2e 	l.ori r4,r4,0x262e
		goto stop_out;
	}
	/* step2. Send Slave Address */
	writel(((saddr << 1) & 0x0fe), TWI_DTR);	/* slave address + write */
    5c7c:	e2 d6 b0 00 	l.add r22,r22,r22
    5c80:	a8 52 14 08 	l.ori r2,r18,0x1408
    5c84:	a4 76 00 ff 	l.andi r3,r22,0xff
    5c88:	d4 02 18 00 	l.sw 0x0(r2),r3
	twi_clear_irq_flag();	/* clear int flag to send saddr */
    5c8c:	07 ff fe c8 	l.jal 57ac <twi_clear_irq_flag>
    5c90:	9c 40 07 ff 	l.addi r2,r0,0x7ff

	timeout = TWI_CHECK_TIMEOUT;
	while ((!(readl(TWI_CTR) & TWI_INTFLAG)) && (--timeout))
    5c94:	a8 72 14 0c 	l.ori r3,r18,0x140c
    5c98:	84 83 00 00 	l.lwz r4,0x0(r3)
    5c9c:	a4 84 00 08 	l.andi r4,r4,0x8
    5ca0:	bc 24 00 00 	l.sfnei r4,0x0
    5ca4:	10 00 00 08 	l.bf 5cc4 <twi_byte_rw+0x1b4>
    5ca8:	1a 40 07 08 	l.movhi r18,0x708
    5cac:	9c 42 ff ff 	l.addi r2,r2,0xffffffff
    5cb0:	bc 22 00 00 	l.sfnei r2,0x0
    5cb4:	13 ff ff f9 	l.bf 5c98 <twi_byte_rw+0x188>
    5cb8:	18 80 00 01 	l.movhi r4,0x1
		;
	if (timeout == 0) {
		ERR("to1\n");
    5cbc:	00 00 00 06 	l.j 5cd4 <twi_byte_rw+0x1c4>
    5cc0:	9c 60 00 08 	l.addi r3,r0,0x8
	twi_clear_irq_flag();	/* clear int flag to send saddr */

	timeout = TWI_CHECK_TIMEOUT;
	while ((!(readl(TWI_CTR) & TWI_INTFLAG)) && (--timeout))
		;
	if (timeout == 0) {
    5cc4:	bc 22 00 00 	l.sfnei r2,0x0
    5cc8:	10 00 00 05 	l.bf 5cdc <twi_byte_rw+0x1cc>
    5ccc:	18 80 00 01 	l.movhi r4,0x1
		ERR("to1\n");
    5cd0:	9c 60 00 08 	l.addi r3,r0,0x8
    5cd4:	03 ff ff d9 	l.j 5c38 <twi_byte_rw+0x128>
    5cd8:	a8 84 26 39 	l.ori r4,r4,0x2639
		goto stop_out;
	}

	state = readl(TWI_STR);
    5cdc:	a8 52 14 10 	l.ori r2,r18,0x1410
    5ce0:	84 42 00 00 	l.lwz r2,0x0(r2)
    5ce4:	d4 01 10 04 	l.sw 0x4(r1),r2
	while (state != 0x18) {
    5ce8:	84 41 00 04 	l.lwz r2,0x4(r1)
    5cec:	bc 02 00 18 	l.sfeqi r2,0x18
    5cf0:	10 00 00 08 	l.bf 5d10 <twi_byte_rw+0x200>
    5cf4:	15 00 00 00 	l.nop 0x0
		ERR("e5:%x\n", state);
    5cf8:	84 41 00 04 	l.lwz r2,0x4(r1)
    5cfc:	18 80 00 01 	l.movhi r4,0x1
    5d00:	d4 01 10 00 	l.sw 0x0(r1),r2
    5d04:	9c 60 00 08 	l.addi r3,r0,0x8
    5d08:	00 00 00 c3 	l.j 6014 <twi_byte_rw+0x504>
    5d0c:	a8 84 26 42 	l.ori r4,r4,0x2642
		goto stop_out;
	}

	/* step3. Send Byte Address */
	writel(baddr, TWI_DTR);	/* slave address + write */
    5d10:	a8 52 14 08 	l.ori r2,r18,0x1408
    5d14:	d4 02 e0 00 	l.sw 0x0(r2),r28
	twi_clear_irq_flag();	/* clear int flag to send regaddr */
    5d18:	07 ff fe a5 	l.jal 57ac <twi_clear_irq_flag>
    5d1c:	9c 40 07 ff 	l.addi r2,r0,0x7ff

	timeout = TWI_CHECK_TIMEOUT;
	while ((!(readl(TWI_CTR) & TWI_INTFLAG)) && (--timeout))
    5d20:	a8 72 14 0c 	l.ori r3,r18,0x140c
    5d24:	84 83 00 00 	l.lwz r4,0x0(r3)
    5d28:	a4 84 00 08 	l.andi r4,r4,0x8
    5d2c:	bc 24 00 00 	l.sfnei r4,0x0
    5d30:	10 00 00 08 	l.bf 5d50 <twi_byte_rw+0x240>
    5d34:	1a 40 07 08 	l.movhi r18,0x708
    5d38:	9c 42 ff ff 	l.addi r2,r2,0xffffffff
    5d3c:	bc 22 00 00 	l.sfnei r2,0x0
    5d40:	13 ff ff f9 	l.bf 5d24 <twi_byte_rw+0x214>
    5d44:	18 80 00 01 	l.movhi r4,0x1
		;
	if (timeout == 0) {
		ERR("to2\n");
    5d48:	00 00 00 06 	l.j 5d60 <twi_byte_rw+0x250>
    5d4c:	9c 60 00 08 	l.addi r3,r0,0x8
	twi_clear_irq_flag();	/* clear int flag to send regaddr */

	timeout = TWI_CHECK_TIMEOUT;
	while ((!(readl(TWI_CTR) & TWI_INTFLAG)) && (--timeout))
		;
	if (timeout == 0) {
    5d50:	bc 22 00 00 	l.sfnei r2,0x0
    5d54:	10 00 00 05 	l.bf 5d68 <twi_byte_rw+0x258>
    5d58:	18 80 00 01 	l.movhi r4,0x1
		ERR("to2\n");
    5d5c:	9c 60 00 08 	l.addi r3,r0,0x8
    5d60:	03 ff ff b6 	l.j 5c38 <twi_byte_rw+0x128>
    5d64:	a8 84 26 4d 	l.ori r4,r4,0x264d
		goto stop_out;
	}

	state = readl(TWI_STR);
    5d68:	a8 52 14 10 	l.ori r2,r18,0x1410
    5d6c:	84 62 00 00 	l.lwz r3,0x0(r2)
    5d70:	d4 01 18 04 	l.sw 0x4(r1),r3
	if (state != 0x28) {
    5d74:	84 61 00 04 	l.lwz r3,0x4(r1)
    5d78:	bc 03 00 28 	l.sfeqi r3,0x28
    5d7c:	10 00 00 08 	l.bf 5d9c <twi_byte_rw+0x28c>
    5d80:	bc 3a 00 00 	l.sfnei r26,0x0
		ERR("e7:%x\n", state);
    5d84:	84 41 00 04 	l.lwz r2,0x4(r1)
    5d88:	18 80 00 01 	l.movhi r4,0x1
    5d8c:	d4 01 10 00 	l.sw 0x0(r1),r2
    5d90:	9c 60 00 08 	l.addi r3,r0,0x8
    5d94:	00 00 00 a0 	l.j 6014 <twi_byte_rw+0x504>
    5d98:	a8 84 26 56 	l.ori r4,r4,0x2656
		goto stop_out;
	}

	if (op == TWI_WRITE) {
    5d9c:	0c 00 00 28 	l.bnf 5e3c <twi_byte_rw+0x32c>
    5da0:	aa 82 00 00 	l.ori r20,r2,0x0
	} else {
		/* step4. Send restart for read */
		twi_start();
		twi_clear_irq_flag();	/* clear int flag to send saddr */

		timeout = TWI_CHECK_TIMEOUT;
    5da4:	00 00 00 2d 	l.j 5e58 <twi_byte_rw+0x348>
    5da8:	9c 40 07 ff 	l.addi r2,r0,0x7ff
	}

	if (op == TWI_WRITE) {
		/* step4. Send Data to be write */
		while (len--) {
			writel(*data++, TWI_DTR);	/* slave address + write */
    5dac:	8c 50 00 00 	l.lbz r2,0x0(r16)
    5db0:	d4 16 10 00 	l.sw 0x0(r22),r2
			twi_clear_irq_flag();	/* clear int flag */
    5db4:	07 ff fe 7e 	l.jal 57ac <twi_clear_irq_flag>
    5db8:	9c 40 07 ff 	l.addi r2,r0,0x7ff

			timeout = TWI_CHECK_TIMEOUT;
			while ((!(readl(TWI_CTR) & TWI_INTFLAG)) && (timeout--))
    5dbc:	84 72 00 00 	l.lwz r3,0x0(r18)
    5dc0:	a4 63 00 08 	l.andi r3,r3,0x8
    5dc4:	bc 03 00 00 	l.sfeqi r3,0x0
    5dc8:	10 00 00 08 	l.bf 5de8 <twi_byte_rw+0x2d8>
    5dcc:	9c 42 ff ff 	l.addi r2,r2,0xffffffff
    5dd0:	9c 42 00 01 	l.addi r2,r2,0x1
				;
			if (timeout == -1) {
    5dd4:	bc 02 ff ff 	l.sfeqi r2,0xffffffff
    5dd8:	0c 00 00 0a 	l.bnf 5e00 <twi_byte_rw+0x2f0>
    5ddc:	18 80 00 01 	l.movhi r4,0x1
				ERR("to3\n");
    5de0:	00 00 00 06 	l.j 5df8 <twi_byte_rw+0x2e8>
    5de4:	9c 60 00 08 	l.addi r3,r0,0x8
		while (len--) {
			writel(*data++, TWI_DTR);	/* slave address + write */
			twi_clear_irq_flag();	/* clear int flag */

			timeout = TWI_CHECK_TIMEOUT;
			while ((!(readl(TWI_CTR) & TWI_INTFLAG)) && (timeout--))
    5de8:	bc 22 ff ff 	l.sfnei r2,0xffffffff
    5dec:	13 ff ff f4 	l.bf 5dbc <twi_byte_rw+0x2ac>
    5df0:	18 80 00 01 	l.movhi r4,0x1
				;
			if (timeout == -1) {
				ERR("to3\n");
    5df4:	9c 60 00 08 	l.addi r3,r0,0x8
    5df8:	03 ff ff 90 	l.j 5c38 <twi_byte_rw+0x128>
    5dfc:	a8 84 26 61 	l.ori r4,r4,0x2661
				goto stop_out;
			}

			state = readl(TWI_STR);
    5e00:	84 54 00 00 	l.lwz r2,0x0(r20)
			if (state != 0x28) {
    5e04:	9d ce ff ff 	l.addi r14,r14,0xffffffff
			if (timeout == -1) {
				ERR("to3\n");
				goto stop_out;
			}

			state = readl(TWI_STR);
    5e08:	d4 01 10 04 	l.sw 0x4(r1),r2
			if (state != 0x28) {
    5e0c:	84 41 00 04 	l.lwz r2,0x4(r1)
    5e10:	bc 22 00 28 	l.sfnei r2,0x28
    5e14:	10 00 00 04 	l.bf 5e24 <twi_byte_rw+0x314>
    5e18:	15 00 00 00 	l.nop 0x0
	}

	if (op == TWI_WRITE) {
		/* step4. Send Data to be write */
		while (len--) {
			writel(*data++, TWI_DTR);	/* slave address + write */
    5e1c:	00 00 00 0a 	l.j 5e44 <twi_byte_rw+0x334>
    5e20:	9e 10 00 01 	l.addi r16,r16,0x1
				goto stop_out;
			}

			state = readl(TWI_STR);
			if (state != 0x28) {
				ERR("e9:%x\n", state);
    5e24:	84 41 00 04 	l.lwz r2,0x4(r1)
    5e28:	18 80 00 01 	l.movhi r4,0x1
    5e2c:	d4 01 10 00 	l.sw 0x0(r1),r2
    5e30:	9c 60 00 08 	l.addi r3,r0,0x8
    5e34:	00 00 00 78 	l.j 6014 <twi_byte_rw+0x504>
    5e38:	a8 84 26 6a 	l.ori r4,r4,0x266a
	}

	if (op == TWI_WRITE) {
		/* step4. Send Data to be write */
		while (len--) {
			writel(*data++, TWI_DTR);	/* slave address + write */
    5e3c:	aa d2 14 08 	l.ori r22,r18,0x1408
			twi_clear_irq_flag();	/* clear int flag */

			timeout = TWI_CHECK_TIMEOUT;
			while ((!(readl(TWI_CTR) & TWI_INTFLAG)) && (timeout--))
    5e40:	aa 52 14 0c 	l.ori r18,r18,0x140c
		goto stop_out;
	}

	if (op == TWI_WRITE) {
		/* step4. Send Data to be write */
		while (len--) {
    5e44:	bc 2e 00 00 	l.sfnei r14,0x0
    5e48:	13 ff ff d9 	l.bf 5dac <twi_byte_rw+0x29c>
    5e4c:	15 00 00 00 	l.nop 0x0
					goto stop_out;
				}
			}
		}
	}
	ret = 0;
    5e50:	00 00 00 89 	l.j 6074 <twi_byte_rw+0x564>
    5e54:	a8 4e 00 00 	l.ori r2,r14,0x0
				goto stop_out;
			}
		}
	} else {
		/* step4. Send restart for read */
		twi_start();
    5e58:	07 ff fe 6c 	l.jal 5808 <twi_start>
    5e5c:	aa 52 14 0c 	l.ori r18,r18,0x140c
		twi_clear_irq_flag();	/* clear int flag to send saddr */
    5e60:	07 ff fe 53 	l.jal 57ac <twi_clear_irq_flag>
    5e64:	15 00 00 00 	l.nop 0x0

		timeout = TWI_CHECK_TIMEOUT;
		while ((!(readl(TWI_CTR) & TWI_INTFLAG)) && (--timeout))
    5e68:	84 72 00 00 	l.lwz r3,0x0(r18)
    5e6c:	a4 63 00 08 	l.andi r3,r3,0x8
    5e70:	bc 23 00 00 	l.sfnei r3,0x0
    5e74:	10 00 00 08 	l.bf 5e94 <twi_byte_rw+0x384>
    5e78:	1a 80 07 08 	l.movhi r20,0x708
    5e7c:	9c 42 ff ff 	l.addi r2,r2,0xffffffff
    5e80:	bc 22 00 00 	l.sfnei r2,0x0
    5e84:	13 ff ff f9 	l.bf 5e68 <twi_byte_rw+0x358>
    5e88:	18 80 00 01 	l.movhi r4,0x1
			;
		if (timeout == 0) {
			ERR("to4\n");
    5e8c:	00 00 00 06 	l.j 5ea4 <twi_byte_rw+0x394>
    5e90:	9c 60 00 08 	l.addi r3,r0,0x8
		twi_clear_irq_flag();	/* clear int flag to send saddr */

		timeout = TWI_CHECK_TIMEOUT;
		while ((!(readl(TWI_CTR) & TWI_INTFLAG)) && (--timeout))
			;
		if (timeout == 0) {
    5e94:	bc 22 00 00 	l.sfnei r2,0x0
    5e98:	10 00 00 05 	l.bf 5eac <twi_byte_rw+0x39c>
    5e9c:	18 80 00 01 	l.movhi r4,0x1
			ERR("to4\n");
    5ea0:	9c 60 00 08 	l.addi r3,r0,0x8
    5ea4:	03 ff ff 65 	l.j 5c38 <twi_byte_rw+0x128>
    5ea8:	a8 84 26 75 	l.ori r4,r4,0x2675
			goto stop_out;
		}

		state = readl(TWI_STR);
    5eac:	a8 54 14 10 	l.ori r2,r20,0x1410
    5eb0:	84 42 00 00 	l.lwz r2,0x0(r2)
    5eb4:	d4 01 10 04 	l.sw 0x4(r1),r2
		if (state != 0x10) {
    5eb8:	84 41 00 04 	l.lwz r2,0x4(r1)
    5ebc:	bc 02 00 10 	l.sfeqi r2,0x10
    5ec0:	10 00 00 08 	l.bf 5ee0 <twi_byte_rw+0x3d0>
    5ec4:	15 00 00 00 	l.nop 0x0
			ERR("e11:%x\n", state);
    5ec8:	84 41 00 04 	l.lwz r2,0x4(r1)
    5ecc:	18 80 00 01 	l.movhi r4,0x1
    5ed0:	d4 01 10 00 	l.sw 0x0(r1),r2
    5ed4:	9c 60 00 08 	l.addi r3,r0,0x8
    5ed8:	00 00 00 4f 	l.j 6014 <twi_byte_rw+0x504>
    5edc:	a8 84 26 7e 	l.ori r4,r4,0x267e
			goto stop_out;
		}

		/* step5. Send Slave Address */
		writel(((saddr << 1) | 1), TWI_DTR);	/* slave address + write */
    5ee0:	a8 54 14 08 	l.ori r2,r20,0x1408
    5ee4:	aa d6 00 01 	l.ori r22,r22,0x1
		twi_clear_irq_flag();	/* clear int flag to send saddr */

		timeout = TWI_CHECK_TIMEOUT;
		while ((!(readl(TWI_CTR) & TWI_INTFLAG)) && (--timeout))
    5ee8:	aa 94 14 0c 	l.ori r20,r20,0x140c
			ERR("e11:%x\n", state);
			goto stop_out;
		}

		/* step5. Send Slave Address */
		writel(((saddr << 1) | 1), TWI_DTR);	/* slave address + write */
    5eec:	d4 02 b0 00 	l.sw 0x0(r2),r22
		twi_clear_irq_flag();	/* clear int flag to send saddr */
    5ef0:	07 ff fe 2f 	l.jal 57ac <twi_clear_irq_flag>
    5ef4:	9c 40 07 ff 	l.addi r2,r0,0x7ff

		timeout = TWI_CHECK_TIMEOUT;
		while ((!(readl(TWI_CTR) & TWI_INTFLAG)) && (--timeout))
    5ef8:	84 74 00 00 	l.lwz r3,0x0(r20)
    5efc:	a4 63 00 08 	l.andi r3,r3,0x8
    5f00:	bc 23 00 00 	l.sfnei r3,0x0
    5f04:	10 00 00 08 	l.bf 5f24 <twi_byte_rw+0x414>
    5f08:	18 80 07 08 	l.movhi r4,0x708
    5f0c:	9c 42 ff ff 	l.addi r2,r2,0xffffffff
    5f10:	bc 22 00 00 	l.sfnei r2,0x0
    5f14:	13 ff ff f9 	l.bf 5ef8 <twi_byte_rw+0x3e8>
    5f18:	18 80 00 01 	l.movhi r4,0x1
			;
		if (timeout == 0) {
			ERR("to5\n");
    5f1c:	00 00 00 06 	l.j 5f34 <twi_byte_rw+0x424>
    5f20:	9c 60 00 08 	l.addi r3,r0,0x8
		twi_clear_irq_flag();	/* clear int flag to send saddr */

		timeout = TWI_CHECK_TIMEOUT;
		while ((!(readl(TWI_CTR) & TWI_INTFLAG)) && (--timeout))
			;
		if (timeout == 0) {
    5f24:	bc 22 00 00 	l.sfnei r2,0x0
    5f28:	10 00 00 05 	l.bf 5f3c <twi_byte_rw+0x42c>
    5f2c:	9c 60 00 08 	l.addi r3,r0,0x8
			ERR("to5\n");
    5f30:	18 80 00 01 	l.movhi r4,0x1
    5f34:	03 ff ff 41 	l.j 5c38 <twi_byte_rw+0x128>
    5f38:	a8 84 26 8a 	l.ori r4,r4,0x268a
			goto stop_out;
		}

		state = readl(TWI_STR);
    5f3c:	a8 44 14 10 	l.ori r2,r4,0x1410
    5f40:	84 62 00 00 	l.lwz r3,0x0(r2)
    5f44:	d4 01 18 04 	l.sw 0x4(r1),r3
		if (state != 0x40) {
    5f48:	84 61 00 04 	l.lwz r3,0x4(r1)
    5f4c:	bc 23 00 40 	l.sfnei r3,0x40
    5f50:	0c 00 00 41 	l.bnf 6054 <twi_byte_rw+0x544>
    5f54:	15 00 00 00 	l.nop 0x0
			ERR("e13:%x\n", state);
    5f58:	84 41 00 04 	l.lwz r2,0x4(r1)
    5f5c:	18 80 00 01 	l.movhi r4,0x1
    5f60:	d4 01 10 00 	l.sw 0x0(r1),r2
    5f64:	9c 60 00 08 	l.addi r3,r0,0x8
    5f68:	00 00 00 2b 	l.j 6014 <twi_byte_rw+0x504>
    5f6c:	a8 84 26 93 	l.ori r4,r4,0x2693
			goto stop_out;
		}

		/* step6. Get data */
		while (len--) {
			if (len == 0)
    5f70:	bc 2e 00 00 	l.sfnei r14,0x0
    5f74:	10 00 00 05 	l.bf 5f88 <twi_byte_rw+0x478>
    5f78:	15 00 00 00 	l.nop 0x0

static inline void twi_disable_ack(void)
{
	unsigned int reg_val;

	reg_val = readl(TWI_CTR) & 0x0ff;
    5f7c:	84 52 00 00 	l.lwz r2,0x0(r18)
	reg_val &= ~TWI_AACK;
	reg_val &= ~TWI_INTFLAG;
    5f80:	a4 42 00 f3 	l.andi r2,r2,0xf3
	writel(reg_val, TWI_CTR);
    5f84:	d4 12 10 00 	l.sw 0x0(r18),r2
		/* step6. Get data */
		while (len--) {
			if (len == 0)
				twi_disable_ack();

			twi_clear_irq_flag();	/* clear int flag then data come in */
    5f88:	07 ff fe 09 	l.jal 57ac <twi_clear_irq_flag>
    5f8c:	9c 40 07 ff 	l.addi r2,r0,0x7ff

			timeout = TWI_CHECK_TIMEOUT;
			while ((!(readl(TWI_CTR) & TWI_INTFLAG)) && (timeout--))
    5f90:	84 72 00 00 	l.lwz r3,0x0(r18)
    5f94:	a4 63 00 08 	l.andi r3,r3,0x8
    5f98:	bc 03 00 00 	l.sfeqi r3,0x0
    5f9c:	10 00 00 08 	l.bf 5fbc <twi_byte_rw+0x4ac>
    5fa0:	9c 42 ff ff 	l.addi r2,r2,0xffffffff
    5fa4:	9c 42 00 01 	l.addi r2,r2,0x1
				;
			if (timeout == -1) {
    5fa8:	bc 02 ff ff 	l.sfeqi r2,0xffffffff
    5fac:	0c 00 00 0a 	l.bnf 5fd4 <twi_byte_rw+0x4c4>
    5fb0:	18 80 00 01 	l.movhi r4,0x1
				ERR("to6\n");
    5fb4:	00 00 00 06 	l.j 5fcc <twi_byte_rw+0x4bc>
    5fb8:	9c 60 00 08 	l.addi r3,r0,0x8
				twi_disable_ack();

			twi_clear_irq_flag();	/* clear int flag then data come in */

			timeout = TWI_CHECK_TIMEOUT;
			while ((!(readl(TWI_CTR) & TWI_INTFLAG)) && (timeout--))
    5fbc:	bc 22 ff ff 	l.sfnei r2,0xffffffff
    5fc0:	13 ff ff f4 	l.bf 5f90 <twi_byte_rw+0x480>
    5fc4:	18 80 00 01 	l.movhi r4,0x1
				;
			if (timeout == -1) {
				ERR("to6\n");
    5fc8:	9c 60 00 08 	l.addi r3,r0,0x8
    5fcc:	03 ff ff 1b 	l.j 5c38 <twi_byte_rw+0x128>
    5fd0:	a8 84 26 9f 	l.ori r4,r4,0x269f
				goto stop_out;
			}

			*data++ = readl(TWI_DTR);
    5fd4:	84 56 00 00 	l.lwz r2,0x0(r22)
			state = readl(TWI_STR);
			if (len > 0) {
    5fd8:	bc 0e 00 00 	l.sfeqi r14,0x0
			if (timeout == -1) {
				ERR("to6\n");
				goto stop_out;
			}

			*data++ = readl(TWI_DTR);
    5fdc:	d8 10 10 00 	l.sb 0x0(r16),r2
			state = readl(TWI_STR);
    5fe0:	84 54 00 00 	l.lwz r2,0x0(r20)
    5fe4:	d4 01 10 04 	l.sw 0x4(r1),r2
			if (len > 0) {
    5fe8:	10 00 00 0f 	l.bf 6024 <twi_byte_rw+0x514>
    5fec:	15 00 00 00 	l.nop 0x0
				if (state != 0x50) {
    5ff0:	84 41 00 04 	l.lwz r2,0x4(r1)
    5ff4:	bc 02 00 50 	l.sfeqi r2,0x50
    5ff8:	10 00 00 15 	l.bf 604c <twi_byte_rw+0x53c>
    5ffc:	15 00 00 00 	l.nop 0x0
					ERR("e14:%x\n", state);
    6000:	84 41 00 04 	l.lwz r2,0x4(r1)
    6004:	18 80 00 01 	l.movhi r4,0x1
    6008:	d4 01 10 00 	l.sw 0x0(r1),r2
    600c:	9c 60 00 08 	l.addi r3,r0,0x8
    6010:	a8 84 26 a8 	l.ori r4,r4,0x26a8
    6014:	04 00 0f e9 	l.jal 9fb8 <debugger_printf>
    6018:	9c 40 ff ff 	l.addi r2,r0,0xffffffff
    601c:	00 00 00 17 	l.j 6078 <twi_byte_rw+0x568>
    6020:	19 c0 07 08 	l.movhi r14,0x708
					goto stop_out;
				}
			} else {
				if (state != 0x58) {
    6024:	84 41 00 04 	l.lwz r2,0x4(r1)
    6028:	bc 02 00 58 	l.sfeqi r2,0x58
    602c:	10 00 00 08 	l.bf 604c <twi_byte_rw+0x53c>
    6030:	15 00 00 00 	l.nop 0x0
					ERR("e15:%x\n", state);
    6034:	84 41 00 04 	l.lwz r2,0x4(r1)
    6038:	18 80 00 01 	l.movhi r4,0x1
    603c:	d4 01 10 00 	l.sw 0x0(r1),r2
    6040:	9c 60 00 08 	l.addi r3,r0,0x8
    6044:	03 ff ff f4 	l.j 6014 <twi_byte_rw+0x504>
    6048:	a8 84 26 b4 	l.ori r4,r4,0x26b4
			if (timeout == -1) {
				ERR("to6\n");
				goto stop_out;
			}

			*data++ = readl(TWI_DTR);
    604c:	00 00 00 05 	l.j 6060 <twi_byte_rw+0x550>
    6050:	9e 10 00 01 	l.addi r16,r16,0x1

static inline void twi_disable_ack(void)
{
	unsigned int reg_val;

	reg_val = readl(TWI_CTR) & 0x0ff;
    6054:	aa 44 14 0c 	l.ori r18,r4,0x140c
			if (timeout == -1) {
				ERR("to6\n");
				goto stop_out;
			}

			*data++ = readl(TWI_DTR);
    6058:	aa c4 14 08 	l.ori r22,r4,0x1408
			state = readl(TWI_STR);
    605c:	aa 82 00 00 	l.ori r20,r2,0x0
			ERR("e13:%x\n", state);
			goto stop_out;
		}

		/* step6. Get data */
		while (len--) {
    6060:	bc 2e 00 00 	l.sfnei r14,0x0
    6064:	13 ff ff c3 	l.bf 5f70 <twi_byte_rw+0x460>
    6068:	9d ce ff ff 	l.addi r14,r14,0xffffffff
    606c:	9d ce 00 01 	l.addi r14,r14,0x1
					goto stop_out;
				}
			}
		}
	}
	ret = 0;
    6070:	a8 4e 00 00 	l.ori r2,r14,0x0
{
	unsigned int timeout;
	unsigned int value;

	/* step1. set stop signal */
	value = readl(TWI_CTR);
    6074:	19 c0 07 08 	l.movhi r14,0x708
	value |= TWI_MSTOP;
	value &= ~TWI_INTFLAG;
    6078:	9c 80 ff f7 	l.addi r4,r0,0xfffffff7
{
	unsigned int timeout;
	unsigned int value;

	/* step1. set stop signal */
	value = readl(TWI_CTR);
    607c:	a9 ce 14 0c 	l.ori r14,r14,0x140c
    6080:	84 6e 00 00 	l.lwz r3,0x0(r14)
	value |= TWI_MSTOP;
    6084:	a8 63 00 10 	l.ori r3,r3,0x10
	value &= ~TWI_INTFLAG;
    6088:	e0 63 20 03 	l.and r3,r3,r4
	writel(value, TWI_CTR);
    608c:	d4 0e 18 00 	l.sw 0x0(r14),r3
	timeout = TWI_CHECK_TIMEOUT;

	/* step2. clear the interrupt flag */
	twi_clear_irq_flag();
    6090:	07 ff fd c7 	l.jal 57ac <twi_clear_irq_flag>
    6094:	15 00 00 00 	l.nop 0x0
    6098:	9c 80 07 ff 	l.addi r4,r0,0x7ff

	/* wait send finished */
	timeout = TWI_CHECK_TIMEOUT;
	while ((readl(TWI_CTR) & TWI_MSTOP) && (--timeout))
    609c:	84 6e 00 00 	l.lwz r3,0x0(r14)
    60a0:	a4 63 00 10 	l.andi r3,r3,0x10
    60a4:	bc 03 00 00 	l.sfeqi r3,0x0
    60a8:	10 00 00 05 	l.bf 60bc <twi_byte_rw+0x5ac>
    60ac:	9c 84 ff ff 	l.addi r4,r4,0xffffffff
    60b0:	bc 24 00 00 	l.sfnei r4,0x0
    60b4:	13 ff ff fa 	l.bf 609c <twi_byte_rw+0x58c>
    60b8:	15 00 00 00 	l.nop 0x0
		;

	/* step3. check twi fsm is idle(0xf8) */
	timeout = TWI_CHECK_TIMEOUT;
	while ((0xf8 != readl(TWI_STR)) && (--timeout))
    60bc:	18 60 07 08 	l.movhi r3,0x708
	/* step2. clear the interrupt flag */
	twi_clear_irq_flag();

	/* wait send finished */
	timeout = TWI_CHECK_TIMEOUT;
	while ((readl(TWI_CTR) & TWI_MSTOP) && (--timeout))
    60c0:	9c 80 07 ff 	l.addi r4,r0,0x7ff
		;

	/* step3. check twi fsm is idle(0xf8) */
	timeout = TWI_CHECK_TIMEOUT;
	while ((0xf8 != readl(TWI_STR)) && (--timeout))
    60c4:	a8 63 14 10 	l.ori r3,r3,0x1410
    60c8:	84 a3 00 00 	l.lwz r5,0x0(r3)
    60cc:	bc 05 00 f8 	l.sfeqi r5,0xf8
    60d0:	10 00 00 08 	l.bf 60f0 <twi_byte_rw+0x5e0>
    60d4:	bc 24 00 00 	l.sfnei r4,0x0
    60d8:	9c 84 ff ff 	l.addi r4,r4,0xffffffff
    60dc:	bc 24 00 00 	l.sfnei r4,0x0
    60e0:	13 ff ff fa 	l.bf 60c8 <twi_byte_rw+0x5b8>
    60e4:	15 00 00 00 	l.nop 0x0
		;
	if (timeout == 0) {
		ERR("state err:%x\n", readl(TWI_STR));
    60e8:	00 00 00 05 	l.j 60fc <twi_byte_rw+0x5ec>
    60ec:	18 80 07 08 	l.movhi r4,0x708

	/* step3. check twi fsm is idle(0xf8) */
	timeout = TWI_CHECK_TIMEOUT;
	while ((0xf8 != readl(TWI_STR)) && (--timeout))
		;
	if (timeout == 0) {
    60f0:	10 00 00 0e 	l.bf 6128 <twi_byte_rw+0x618>
    60f4:	9c a0 07 ff 	l.addi r5,r0,0x7ff
		ERR("state err:%x\n", readl(TWI_STR));
    60f8:	18 80 07 08 	l.movhi r4,0x708
    60fc:	a8 84 14 10 	l.ori r4,r4,0x1410
    6100:	84 64 00 00 	l.lwz r3,0x0(r4)
    6104:	18 80 00 01 	l.movhi r4,0x1
    6108:	d4 01 18 00 	l.sw 0x0(r1),r3
    610c:	a8 84 26 c0 	l.ori r4,r4,0x26c0
    6110:	04 00 0f aa 	l.jal 9fb8 <debugger_printf>
    6114:	9c 60 00 08 	l.addi r3,r0,0x8
		twic_reset();
    6118:	07 ff fd b2 	l.jal 57e0 <twic_reset>
    611c:	15 00 00 00 	l.nop 0x0
    6120:	00 00 00 17 	l.j 617c <twi_byte_rw+0x66c>
    6124:	15 00 00 00 	l.nop 0x0
		return -EFAIL;
	}

	/* step4. check twi scl & sda must high level */
	timeout = TWI_CHECK_TIMEOUT;
	while ((0x3a != readl(TWI_LCR)) && (--timeout))
    6128:	18 60 07 08 	l.movhi r3,0x708
    612c:	a8 63 14 20 	l.ori r3,r3,0x1420
    6130:	84 83 00 00 	l.lwz r4,0x0(r3)
    6134:	bc 04 00 3a 	l.sfeqi r4,0x3a
    6138:	10 00 00 08 	l.bf 6158 <twi_byte_rw+0x648>
    613c:	bc 25 00 00 	l.sfnei r5,0x0
    6140:	9c a5 ff ff 	l.addi r5,r5,0xffffffff
    6144:	bc 25 00 00 	l.sfnei r5,0x0
    6148:	13 ff ff fa 	l.bf 6130 <twi_byte_rw+0x620>
    614c:	18 80 07 08 	l.movhi r4,0x708
		;
	if (timeout == 0) {
		ERR("lcr err:%x\n", readl(TWI_LCR));
    6150:	00 00 00 05 	l.j 6164 <twi_byte_rw+0x654>
    6154:	a8 84 14 20 	l.ori r4,r4,0x1420

	/* step4. check twi scl & sda must high level */
	timeout = TWI_CHECK_TIMEOUT;
	while ((0x3a != readl(TWI_LCR)) && (--timeout))
		;
	if (timeout == 0) {
    6158:	10 00 00 09 	l.bf 617c <twi_byte_rw+0x66c>
    615c:	18 80 07 08 	l.movhi r4,0x708
		ERR("lcr err:%x\n", readl(TWI_LCR));
    6160:	a8 84 14 20 	l.ori r4,r4,0x1420
    6164:	84 64 00 00 	l.lwz r3,0x0(r4)
    6168:	18 80 00 01 	l.movhi r4,0x1
    616c:	d4 01 18 00 	l.sw 0x0(r1),r3
    6170:	a8 84 26 d2 	l.ori r4,r4,0x26d2
    6174:	04 00 0f 91 	l.jal 9fb8 <debugger_printf>
    6178:	9c 60 00 08 	l.addi r3,r0,0x8
#ifdef TWI_DEBUG
	INF("twi_%x r:%x d:%x\n", op, baddr, *data);
	printreg();		/* only for twi time sequence debuger */
#endif

	cpu_enable_int(cpsr);
    617c:	04 00 17 14 	l.jal bdcc <cpu_enable_int>
    6180:	a8 78 00 00 	l.ori r3,r24,0x0
	INF("%u,%u,%u,%u,%d\n", op, saddr, baddr, *data, ret);

	return ret;
}
    6184:	9c 21 00 30 	l.addi r1,r1,0x30
    6188:	a9 62 00 00 	l.ori r11,r2,0x0
    618c:	85 21 ff fc 	l.lwz r9,0xfffffffc(r1)
    6190:	84 41 ff d8 	l.lwz r2,0xffffffd8(r1)
    6194:	85 c1 ff dc 	l.lwz r14,0xffffffdc(r1)
    6198:	86 01 ff e0 	l.lwz r16,0xffffffe0(r1)
    619c:	86 41 ff e4 	l.lwz r18,0xffffffe4(r1)
    61a0:	86 81 ff e8 	l.lwz r20,0xffffffe8(r1)
    61a4:	86 c1 ff ec 	l.lwz r22,0xffffffec(r1)
    61a8:	87 01 ff f0 	l.lwz r24,0xfffffff0(r1)
    61ac:	87 41 ff f4 	l.lwz r26,0xfffffff4(r1)
    61b0:	44 00 48 00 	l.jr r9
    61b4:	87 81 ff f8 	l.lwz r28,0xfffffff8(r1)

000061b8 <twi_read>:

s32 twi_read(u32 devaddr, u8 *addr, u8 *data, u32 len)
{
    61b8:	d7 e1 77 e8 	l.sw 0xffffffe8(r1),r14
	u32 i;
	s32 ret = 0;
    61bc:	9d c0 00 00 	l.addi r14,r0,0x0

	return ret;
}

s32 twi_read(u32 devaddr, u8 *addr, u8 *data, u32 len)
{
    61c0:	d7 e1 17 e4 	l.sw 0xffffffe4(r1),r2
    61c4:	d7 e1 87 ec 	l.sw 0xffffffec(r1),r16
    61c8:	d7 e1 97 f0 	l.sw 0xfffffff0(r1),r18
    61cc:	d7 e1 a7 f4 	l.sw 0xfffffff4(r1),r20
    61d0:	d7 e1 b7 f8 	l.sw 0xfffffff8(r1),r22
    61d4:	d7 e1 4f fc 	l.sw 0xfffffffc(r1),r9
    61d8:	aa c4 00 00 	l.ori r22,r4,0x0
    61dc:	9c 21 ff e4 	l.addi r1,r1,0xffffffe4
    61e0:	aa 85 00 00 	l.ori r20,r5,0x0
    61e4:	aa 46 00 00 	l.ori r18,r6,0x0
	u32 i;
	s32 ret = 0;

	for (i = 0; i < len; i++) {
    61e8:	a8 4e 00 00 	l.ori r2,r14,0x0
    61ec:	00 00 00 0a 	l.j 6214 <twi_read+0x5c>
    61f0:	a6 03 00 ff 	l.andi r16,r3,0xff
	INF("%u,%u,%u,%u,%d\n", op, saddr, baddr, *data, ret);

	return ret;
}

s32 twi_read(u32 devaddr, u8 *addr, u8 *data, u32 len)
    61f4:	e0 b6 10 00 	l.add r5,r22,r2
{
	u32 i;
	s32 ret = 0;

	for (i = 0; i < len; i++) {
		ret |= twi_byte_rw(TWI_READ, devaddr, *addr++, data++, 1);
    61f8:	9c 60 00 01 	l.addi r3,r0,0x1
    61fc:	8c a5 00 00 	l.lbz r5,0x0(r5)
    6200:	a8 90 00 00 	l.ori r4,r16,0x0
    6204:	a8 e3 00 00 	l.ori r7,r3,0x0
    6208:	07 ff fe 42 	l.jal 5b10 <twi_byte_rw>
    620c:	9c 42 00 01 	l.addi r2,r2,0x1
    6210:	e1 ce 58 04 	l.or r14,r14,r11
s32 twi_read(u32 devaddr, u8 *addr, u8 *data, u32 len)
{
	u32 i;
	s32 ret = 0;

	for (i = 0; i < len; i++) {
    6214:	e4 82 90 00 	l.sfltu r2,r18
    6218:	13 ff ff f7 	l.bf 61f4 <twi_read+0x3c>
    621c:	e0 d4 10 00 	l.add r6,r20,r2
		ret |= twi_byte_rw(TWI_READ, devaddr, *addr++, data++, 1);
	}

	return ret;
}
    6220:	9c 21 00 1c 	l.addi r1,r1,0x1c
    6224:	a9 6e 00 00 	l.ori r11,r14,0x0
    6228:	85 21 ff fc 	l.lwz r9,0xfffffffc(r1)
    622c:	84 41 ff e4 	l.lwz r2,0xffffffe4(r1)
    6230:	85 c1 ff e8 	l.lwz r14,0xffffffe8(r1)
    6234:	86 01 ff ec 	l.lwz r16,0xffffffec(r1)
    6238:	86 41 ff f0 	l.lwz r18,0xfffffff0(r1)
    623c:	86 81 ff f4 	l.lwz r20,0xfffffff4(r1)
    6240:	44 00 48 00 	l.jr r9
    6244:	86 c1 ff f8 	l.lwz r22,0xfffffff8(r1)

00006248 <twi_write>:

s32 twi_write(u32 devaddr, u8 *addr, u8 *data, u32 len)
{
    6248:	d7 e1 77 e8 	l.sw 0xffffffe8(r1),r14
	u32 i;
	s32 ret = 0;
    624c:	9d c0 00 00 	l.addi r14,r0,0x0

	return ret;
}

s32 twi_write(u32 devaddr, u8 *addr, u8 *data, u32 len)
{
    6250:	d7 e1 17 e4 	l.sw 0xffffffe4(r1),r2
    6254:	d7 e1 87 ec 	l.sw 0xffffffec(r1),r16
    6258:	d7 e1 97 f0 	l.sw 0xfffffff0(r1),r18
    625c:	d7 e1 a7 f4 	l.sw 0xfffffff4(r1),r20
    6260:	d7 e1 b7 f8 	l.sw 0xfffffff8(r1),r22
    6264:	d7 e1 4f fc 	l.sw 0xfffffffc(r1),r9
    6268:	aa c4 00 00 	l.ori r22,r4,0x0
    626c:	9c 21 ff e4 	l.addi r1,r1,0xffffffe4
    6270:	aa 85 00 00 	l.ori r20,r5,0x0
    6274:	aa 46 00 00 	l.ori r18,r6,0x0
	u32 i;
	s32 ret = 0;

	for (i = 0; i < len; i++) {
    6278:	a8 4e 00 00 	l.ori r2,r14,0x0
    627c:	00 00 00 0a 	l.j 62a4 <twi_write+0x5c>
    6280:	a6 03 00 ff 	l.andi r16,r3,0xff
	}

	return ret;
}

s32 twi_write(u32 devaddr, u8 *addr, u8 *data, u32 len)
    6284:	e0 b6 10 00 	l.add r5,r22,r2
{
	u32 i;
	s32 ret = 0;

	for (i = 0; i < len; i++) {
		ret |= twi_byte_rw(TWI_WRITE, devaddr, *addr++, data++, 1);
    6288:	9c 60 00 00 	l.addi r3,r0,0x0
    628c:	8c a5 00 00 	l.lbz r5,0x0(r5)
    6290:	a8 90 00 00 	l.ori r4,r16,0x0
    6294:	9c e0 00 01 	l.addi r7,r0,0x1
    6298:	07 ff fe 1e 	l.jal 5b10 <twi_byte_rw>
    629c:	9c 42 00 01 	l.addi r2,r2,0x1
    62a0:	e1 ce 58 04 	l.or r14,r14,r11
s32 twi_write(u32 devaddr, u8 *addr, u8 *data, u32 len)
{
	u32 i;
	s32 ret = 0;

	for (i = 0; i < len; i++) {
    62a4:	e4 82 90 00 	l.sfltu r2,r18
    62a8:	13 ff ff f7 	l.bf 6284 <twi_write+0x3c>
    62ac:	e0 d4 10 00 	l.add r6,r20,r2
		ret |= twi_byte_rw(TWI_WRITE, devaddr, *addr++, data++, 1);
	}

	return ret;
}
    62b0:	9c 21 00 1c 	l.addi r1,r1,0x1c
    62b4:	a9 6e 00 00 	l.ori r11,r14,0x0
    62b8:	85 21 ff fc 	l.lwz r9,0xfffffffc(r1)
    62bc:	84 41 ff e4 	l.lwz r2,0xffffffe4(r1)
    62c0:	85 c1 ff e8 	l.lwz r14,0xffffffe8(r1)
    62c4:	86 01 ff ec 	l.lwz r16,0xffffffec(r1)
    62c8:	86 41 ff f0 	l.lwz r18,0xfffffff0(r1)
    62cc:	86 81 ff f4 	l.lwz r20,0xfffffff4(r1)
    62d0:	44 00 48 00 	l.jr r9
    62d4:	86 c1 ff f8 	l.lwz r22,0xfffffff8(r1)

000062d8 <is_twi_lock>:

bool is_twi_lock(void)
{
	return twi_lock;
    62d8:	18 60 00 01 	l.movhi r3,0x1
    62dc:	a8 63 34 38 	l.ori r3,r3,0x3438
    62e0:	8d 63 00 00 	l.lbz r11,0x0(r3)
    62e4:	b9 6b 00 18 	l.slli r11,r11,0x18
}
    62e8:	44 00 48 00 	l.jr r9
    62ec:	b9 6b 00 98 	l.srai r11,r11,0x18

000062f0 <twi_send_clk_9pulse>:

int twi_send_clk_9pulse(void)
{
    62f0:	d7 e1 17 f4 	l.sw 0xfffffff4(r1),r2
#define SCL_CTRL_EN    (0x1 << 0x2)
	char cycle = 0;
	unsigned char status = 0;
	volatile unsigned int state;

	state = readl(TWI_LCR);
    62f4:	18 40 07 08 	l.movhi r2,0x708
{
	return twi_lock;
}

int twi_send_clk_9pulse(void)
{
    62f8:	d7 e1 77 f8 	l.sw 0xfffffff8(r1),r14
#define SCL_CTRL_EN    (0x1 << 0x2)
	char cycle = 0;
	unsigned char status = 0;
	volatile unsigned int state;

	state = readl(TWI_LCR);
    62fc:	a8 42 14 20 	l.ori r2,r2,0x1420
{
	return twi_lock;
}

int twi_send_clk_9pulse(void)
{
    6300:	d7 e1 4f fc 	l.sw 0xfffffffc(r1),r9
#define SCL_CTRL_EN    (0x1 << 0x2)
	char cycle = 0;
	unsigned char status = 0;
	volatile unsigned int state;

	state = readl(TWI_LCR);
    6304:	84 62 00 00 	l.lwz r3,0x0(r2)
{
	return twi_lock;
}

int twi_send_clk_9pulse(void)
{
    6308:	9c 21 ff f0 	l.addi r1,r1,0xfffffff0
	unsigned char status = 0;
	volatile unsigned int state;

	state = readl(TWI_LCR);
	/* enable scl control */
	writel(state | SCL_CTRL_EN, TWI_LCR);
    630c:	9d c0 00 09 	l.addi r14,r0,0x9
#define SCL_CTRL_EN    (0x1 << 0x2)
	char cycle = 0;
	unsigned char status = 0;
	volatile unsigned int state;

	state = readl(TWI_LCR);
    6310:	d4 01 18 00 	l.sw 0x0(r1),r3
	/* enable scl control */
	writel(state | SCL_CTRL_EN, TWI_LCR);
    6314:	84 61 00 00 	l.lwz r3,0x0(r1)
    6318:	a8 63 00 04 	l.ori r3,r3,0x4
    631c:	d4 02 18 00 	l.sw 0x0(r2),r3
	while (cycle < 9) {
		if ((readl(TWI_LCR) >> 0x4) & 0x1)
    6320:	84 62 00 00 	l.lwz r3,0x0(r2)
    6324:	a4 63 00 10 	l.andi r3,r3,0x10
    6328:	bc 23 00 00 	l.sfnei r3,0x0
    632c:	10 00 00 12 	l.bf 6374 <twi_send_clk_9pulse+0x84>
    6330:	15 00 00 00 	l.nop 0x0
			break;
		/* twi_scl -> low */
		writel(readl(TWI_LCR) & (~SCL_CTRL), TWI_LCR);
    6334:	84 62 00 00 	l.lwz r3,0x0(r2)
    6338:	9c 80 ff f7 	l.addi r4,r0,0xfffffff7
		udelay(1000);

		/* twi_scl -> high */
		writel(readl(TWI_LCR) | SCL_CTRL, TWI_LCR);
		udelay(1000);
    633c:	9d ce ff ff 	l.addi r14,r14,0xffffffff
	writel(state | SCL_CTRL_EN, TWI_LCR);
	while (cycle < 9) {
		if ((readl(TWI_LCR) >> 0x4) & 0x1)
			break;
		/* twi_scl -> low */
		writel(readl(TWI_LCR) & (~SCL_CTRL), TWI_LCR);
    6340:	e0 63 20 03 	l.and r3,r3,r4
		udelay(1000);

		/* twi_scl -> high */
		writel(readl(TWI_LCR) | SCL_CTRL, TWI_LCR);
		udelay(1000);
    6344:	a5 ce 00 ff 	l.andi r14,r14,0xff
	writel(state | SCL_CTRL_EN, TWI_LCR);
	while (cycle < 9) {
		if ((readl(TWI_LCR) >> 0x4) & 0x1)
			break;
		/* twi_scl -> low */
		writel(readl(TWI_LCR) & (~SCL_CTRL), TWI_LCR);
    6348:	d4 02 18 00 	l.sw 0x0(r2),r3
		udelay(1000);
    634c:	07 ff fb be 	l.jal 5244 <time_udelay>
    6350:	9c 60 03 e8 	l.addi r3,r0,0x3e8

		/* twi_scl -> high */
		writel(readl(TWI_LCR) | SCL_CTRL, TWI_LCR);
    6354:	84 62 00 00 	l.lwz r3,0x0(r2)
    6358:	a8 63 00 08 	l.ori r3,r3,0x8
    635c:	d4 02 18 00 	l.sw 0x0(r2),r3
		udelay(1000);
    6360:	07 ff fb b9 	l.jal 5244 <time_udelay>
    6364:	9c 60 03 e8 	l.addi r3,r0,0x3e8
	volatile unsigned int state;

	state = readl(TWI_LCR);
	/* enable scl control */
	writel(state | SCL_CTRL_EN, TWI_LCR);
	while (cycle < 9) {
    6368:	bc 2e 00 00 	l.sfnei r14,0x0
    636c:	13 ff ff ed 	l.bf 6320 <twi_send_clk_9pulse+0x30>
    6370:	15 00 00 00 	l.nop 0x0
		udelay(1000);
		cycle++;
	}

	/* if SDA is still low level. */
	if (!((readl(TWI_LCR) >> 0x4) & 0x1)) {
    6374:	18 40 07 08 	l.movhi r2,0x708
int twi_send_clk_9pulse(void)
{
#define SCL_CTRL       (0x1 << 0x3)
#define SCL_CTRL_EN    (0x1 << 0x2)
	char cycle = 0;
	unsigned char status = 0;
    6378:	9d 60 00 00 	l.addi r11,r0,0x0
		udelay(1000);
		cycle++;
	}

	/* if SDA is still low level. */
	if (!((readl(TWI_LCR) >> 0x4) & 0x1)) {
    637c:	a8 42 14 20 	l.ori r2,r2,0x1420
    6380:	84 42 00 00 	l.lwz r2,0x0(r2)
    6384:	b8 42 00 44 	l.srli r2,r2,0x4
    6388:	a4 42 00 01 	l.andi r2,r2,0x1
    638c:	e4 22 58 00 	l.sfne r2,r11
    6390:	10 00 00 08 	l.bf 63b0 <twi_send_clk_9pulse+0xc0>
    6394:	18 40 07 08 	l.movhi r2,0x708
		status = -1;
		ERR("SDA is still low level!\n");
    6398:	18 80 00 01 	l.movhi r4,0x1
    639c:	9c 60 00 08 	l.addi r3,r0,0x8
    63a0:	04 00 0f 06 	l.jal 9fb8 <debugger_printf>
    63a4:	a8 84 26 e2 	l.ori r4,r4,0x26e2
		cycle++;
	}

	/* if SDA is still low level. */
	if (!((readl(TWI_LCR) >> 0x4) & 0x1)) {
		status = -1;
    63a8:	9d 60 00 ff 	l.addi r11,r0,0xff

	/* if (state & SCL_CTRL_EN) */
	/* 	return status; */
	/* else */
	/* disable scl control */
	writel(readl(TWI_LCR) & (~SCL_CTRL_EN), TWI_LCR);
    63ac:	18 40 07 08 	l.movhi r2,0x708
    63b0:	9c 80 ff fb 	l.addi r4,r0,0xfffffffb
    63b4:	a8 42 14 20 	l.ori r2,r2,0x1420
    63b8:	84 62 00 00 	l.lwz r3,0x0(r2)
    63bc:	e0 63 20 03 	l.and r3,r3,r4
    63c0:	d4 02 18 00 	l.sw 0x0(r2),r3

	return status;
}
    63c4:	9c 21 00 10 	l.addi r1,r1,0x10
    63c8:	85 21 ff fc 	l.lwz r9,0xfffffffc(r1)
    63cc:	84 41 ff f4 	l.lwz r2,0xfffffff4(r1)
    63d0:	44 00 48 00 	l.jr r9
    63d4:	85 c1 ff f8 	l.lwz r14,0xfffffff8(r1)

000063d8 <twi_get_status>:

s32 twi_get_status(void)
{
	u32 reg_val;

	reg_val = readl(TWI_STR);
    63d8:	18 60 07 08 	l.movhi r3,0x708
	if ((reg_val & 0xFF) != 0xF8)
		return -1;
    63dc:	9d 60 ff ff 	l.addi r11,r0,0xffffffff

s32 twi_get_status(void)
{
	u32 reg_val;

	reg_val = readl(TWI_STR);
    63e0:	a8 83 14 10 	l.ori r4,r3,0x1410
    63e4:	84 84 00 00 	l.lwz r4,0x0(r4)
	if ((reg_val & 0xFF) != 0xF8)
    63e8:	a4 84 00 ff 	l.andi r4,r4,0xff
    63ec:	bc 24 00 f8 	l.sfnei r4,0xf8
    63f0:	10 00 00 09 	l.bf 6414 <twi_get_status+0x3c>
    63f4:	a8 63 14 20 	l.ori r3,r3,0x1420

	reg_val = readl(TWI_LCR);
	if ((reg_val & 0x30) != 0x30)
		return -1;

	return 0;
    63f8:	9d 60 00 00 	l.addi r11,r0,0x0

	reg_val = readl(TWI_STR);
	if ((reg_val & 0xFF) != 0xF8)
		return -1;

	reg_val = readl(TWI_LCR);
    63fc:	84 63 00 00 	l.lwz r3,0x0(r3)
	if ((reg_val & 0x30) != 0x30)
    6400:	a4 63 00 30 	l.andi r3,r3,0x30
    6404:	bc 03 00 30 	l.sfeqi r3,0x30
    6408:	10 00 00 03 	l.bf 6414 <twi_get_status+0x3c>
    640c:	15 00 00 00 	l.nop 0x0
		return -1;
    6410:	9d 60 ff ff 	l.addi r11,r0,0xffffffff

	return 0;
}
    6414:	44 00 48 00 	l.jr r9
    6418:	15 00 00 00 	l.nop 0x0

0000641c <twi_standby_init>:

s32 twi_standby_init(void)
{
    641c:	d7 e1 4f fc 	l.sw 0xfffffffc(r1),r9
    6420:	d7 e1 17 f8 	l.sw 0xfffffff8(r1),r2
	pin_set_multi_sel(PIN_GRP_PL, 0, 2);	/* PL0 config as TWI_SCK */
    6424:	9c 60 00 01 	l.addi r3,r0,0x1

	return 0;
}

s32 twi_standby_init(void)
{
    6428:	9c 21 ff f8 	l.addi r1,r1,0xfffffff8
	pin_set_multi_sel(PIN_GRP_PL, 0, 2);	/* PL0 config as TWI_SCK */
    642c:	9c 80 00 00 	l.addi r4,r0,0x0
    6430:	9c a0 00 02 	l.addi r5,r0,0x2
    6434:	07 ff f9 05 	l.jal 4848 <pin_set_multi_sel>
    6438:	18 40 07 08 	l.movhi r2,0x708
	pin_set_pull(PIN_GRP_PL, 0, PIN_PULL_UP);	/* TWI_SCK pull-up */
    643c:	9c 60 00 01 	l.addi r3,r0,0x1
    6440:	9c 80 00 00 	l.addi r4,r0,0x0
    6444:	07 ff f9 1f 	l.jal 48c0 <pin_set_pull>
    6448:	a8 a3 00 00 	l.ori r5,r3,0x0
	pin_set_drive(PIN_GRP_PL, 0, PIN_MULTI_DRIVE_0);	/* TWI_SCK drive level 2 */
    644c:	9c 80 00 00 	l.addi r4,r0,0x0
    6450:	9c 60 00 01 	l.addi r3,r0,0x1
    6454:	07 ff f9 39 	l.jal 4938 <pin_set_drive>
    6458:	a8 a4 00 00 	l.ori r5,r4,0x0

	pin_set_multi_sel(PIN_GRP_PL, 1, 2);	/* PL1 config as TWI_SDA */
    645c:	9c 60 00 01 	l.addi r3,r0,0x1
    6460:	9c a0 00 02 	l.addi r5,r0,0x2
    6464:	07 ff f8 f9 	l.jal 4848 <pin_set_multi_sel>
    6468:	a8 83 00 00 	l.ori r4,r3,0x0
	pin_set_pull(PIN_GRP_PL, 1, PIN_PULL_UP);	/* TWI_SDA pull-up */
    646c:	9c 60 00 01 	l.addi r3,r0,0x1
    6470:	a8 83 00 00 	l.ori r4,r3,0x0
    6474:	07 ff f9 13 	l.jal 48c0 <pin_set_pull>
    6478:	a8 a3 00 00 	l.ori r5,r3,0x0
	pin_set_drive(PIN_GRP_PL, 1, PIN_MULTI_DRIVE_0);	/* TWI_SDA drive level 2 */
    647c:	9c 60 00 01 	l.addi r3,r0,0x1
    6480:	9c a0 00 00 	l.addi r5,r0,0x0
    6484:	07 ff f9 2d 	l.jal 4938 <pin_set_drive>
    6488:	a8 83 00 00 	l.ori r4,r3,0x0

	/* initialize twi clock */
	/* ccu_set_mclk_reset(CCU_MOD_CLK_R_TWI_1, CCU_CLK_RESET); */
	ccu_set_mclk_onoff(CCU_MOD_CLK_R_TWI, CCU_CLK_ON);
    648c:	9c 60 00 22 	l.addi r3,r0,0x22
    6490:	04 00 2d 89 	l.jal 11ab4 <ccu_set_mclk_onoff>
    6494:	9c 80 00 01 	l.addi r4,r0,0x1
	ccu_set_mclk_reset(CCU_MOD_CLK_R_TWI, CCU_CLK_NRESET);
    6498:	9c 60 00 22 	l.addi r3,r0,0x22
    649c:	04 00 2f 08 	l.jal 120bc <ccu_set_mclk_reset>
    64a0:	9c 80 00 01 	l.addi r4,r0,0x1
	twic_set_sclk(TWI_CLOCK_FREQ);
    64a4:	07 ff fd 07 	l.jal 58c0 <twic_set_sclk.clone.0>
    64a8:	15 00 00 00 	l.nop 0x0
	writel(TWI_BUS_ENB | TWI_AACK, TWI_CTR);
    64ac:	a8 62 14 0c 	l.ori r3,r2,0x140c
    64b0:	9c 80 00 44 	l.addi r4,r0,0x44
	twic_reset();

	/* twi bus state is not reset value, try to restore it */
	if (readl(TWI_LCR) != 0x3a)
    64b4:	a8 42 14 20 	l.ori r2,r2,0x1420
	/* initialize twi clock */
	/* ccu_set_mclk_reset(CCU_MOD_CLK_R_TWI_1, CCU_CLK_RESET); */
	ccu_set_mclk_onoff(CCU_MOD_CLK_R_TWI, CCU_CLK_ON);
	ccu_set_mclk_reset(CCU_MOD_CLK_R_TWI, CCU_CLK_NRESET);
	twic_set_sclk(TWI_CLOCK_FREQ);
	writel(TWI_BUS_ENB | TWI_AACK, TWI_CTR);
    64b8:	d4 03 20 00 	l.sw 0x0(r3),r4
	twic_reset();
    64bc:	07 ff fc c9 	l.jal 57e0 <twic_reset>
    64c0:	15 00 00 00 	l.nop 0x0

	/* twi bus state is not reset value, try to restore it */
	if (readl(TWI_LCR) != 0x3a)
    64c4:	84 42 00 00 	l.lwz r2,0x0(r2)
    64c8:	bc 02 00 3a 	l.sfeqi r2,0x3a
    64cc:	10 00 00 04 	l.bf 64dc <twi_standby_init+0xc0>
    64d0:	18 40 07 08 	l.movhi r2,0x708
		twic_send_dummy_clock();
    64d4:	07 ff fc d9 	l.jal 5838 <twic_send_dummy_clock>
    64d8:	15 00 00 00 	l.nop 0x0

	if (readl(TWI_LCR) == 0x3a)
    64dc:	a8 42 14 20 	l.ori r2,r2,0x1420
    64e0:	84 42 00 00 	l.lwz r2,0x0(r2)
    64e4:	bc 22 00 3a 	l.sfnei r2,0x3a
    64e8:	10 00 00 05 	l.bf 64fc <twi_standby_init+0xe0>
    64ec:	18 80 00 01 	l.movhi r4,0x1
		LOG("init twi succeeded\n");
    64f0:	9c 60 00 02 	l.addi r3,r0,0x2
    64f4:	00 00 00 05 	l.j 6508 <twi_standby_init+0xec>
    64f8:	a8 84 25 f0 	l.ori r4,r4,0x25f0
	else
		ERR("init twi failed!\n");
    64fc:	18 80 00 01 	l.movhi r4,0x1
    6500:	9c 60 00 08 	l.addi r3,r0,0x8
    6504:	a8 84 26 04 	l.ori r4,r4,0x2604
    6508:	04 00 0e ac 	l.jal 9fb8 <debugger_printf>
    650c:	15 00 00 00 	l.nop 0x0

	return OK;
}
    6510:	9c 21 00 08 	l.addi r1,r1,0x8
    6514:	9d 60 00 00 	l.addi r11,r0,0x0
    6518:	85 21 ff fc 	l.lwz r9,0xfffffffc(r1)
    651c:	44 00 48 00 	l.jr r9
    6520:	84 41 ff f8 	l.lwz r2,0xfffffff8(r1)

00006524 <twi_standby_exit>:

s32 twi_standby_exit(void)
{
	return OK;
}
    6524:	44 00 48 00 	l.jr r9
    6528:	9d 60 00 00 	l.addi r11,r0,0x0

0000652c <hwmsgbox_set_receiver>:
*
* Returns    :  OK if set user succeeded, others if failed.
*********************************************************************************************************
*/
static s32 hwmsgbox_set_receiver(u32 queue, u32 user)
{
    652c:	d7 e1 17 fc 	l.sw 0xfffffffc(r1),r2
	volatile u32 value;

	value  =  readl(MSGBOX_CTRL_REG(queue));
    6530:	9c 40 ff fc 	l.addi r2,r0,0xfffffffc
*
* Returns    :  OK if set user succeeded, others if failed.
*********************************************************************************************************
*/
static s32 hwmsgbox_set_receiver(u32 queue, u32 user)
{
    6534:	9c 21 ff f8 	l.addi r1,r1,0xfffffff8
	volatile u32 value;

	value  =  readl(MSGBOX_CTRL_REG(queue));
    6538:	e0 a3 10 03 	l.and r5,r3,r2
    653c:	18 40 03 00 	l.movhi r2,0x300
	value &= ~(1    << (0 + ((queue & 0x3)<<3)));
    6540:	a4 63 00 03 	l.andi r3,r3,0x3
*/
static s32 hwmsgbox_set_receiver(u32 queue, u32 user)
{
	volatile u32 value;

	value  =  readl(MSGBOX_CTRL_REG(queue));
    6544:	a8 42 30 00 	l.ori r2,r2,0x3000
	value &= ~(1    << (0 + ((queue & 0x3)<<3)));
    6548:	b8 63 00 03 	l.slli r3,r3,0x3
*/
static s32 hwmsgbox_set_receiver(u32 queue, u32 user)
{
	volatile u32 value;

	value  =  readl(MSGBOX_CTRL_REG(queue));
    654c:	e0 a5 10 00 	l.add r5,r5,r2
	value &= ~(1    << (0 + ((queue & 0x3)<<3)));
	value |=  (user << (0 + ((queue & 0x3)<<3)));
	writel(value, MSGBOX_CTRL_REG(queue));

	return OK;
}
    6550:	9d 60 00 00 	l.addi r11,r0,0x0
*/
static s32 hwmsgbox_set_receiver(u32 queue, u32 user)
{
	volatile u32 value;

	value  =  readl(MSGBOX_CTRL_REG(queue));
    6554:	84 c5 00 00 	l.lwz r6,0x0(r5)
    6558:	d4 01 30 00 	l.sw 0x0(r1),r6
	value &= ~(1    << (0 + ((queue & 0x3)<<3)));
    655c:	9c c0 00 01 	l.addi r6,r0,0x1
    6560:	84 e1 00 00 	l.lwz r7,0x0(r1)
    6564:	e0 c6 18 08 	l.sll r6,r6,r3
	value |=  (user << (0 + ((queue & 0x3)<<3)));
    6568:	e0 64 18 08 	l.sll r3,r4,r3
static s32 hwmsgbox_set_receiver(u32 queue, u32 user)
{
	volatile u32 value;

	value  =  readl(MSGBOX_CTRL_REG(queue));
	value &= ~(1    << (0 + ((queue & 0x3)<<3)));
    656c:	ac c6 ff ff 	l.xori r6,r6,0xffffffff
    6570:	e0 c6 38 03 	l.and r6,r6,r7
    6574:	d4 01 30 00 	l.sw 0x0(r1),r6
	value |=  (user << (0 + ((queue & 0x3)<<3)));
    6578:	84 c1 00 00 	l.lwz r6,0x0(r1)
    657c:	e0 63 30 04 	l.or r3,r3,r6
    6580:	d4 01 18 00 	l.sw 0x0(r1),r3
	writel(value, MSGBOX_CTRL_REG(queue));
    6584:	84 61 00 00 	l.lwz r3,0x0(r1)
    6588:	d4 05 18 00 	l.sw 0x0(r5),r3

	return OK;
}
    658c:	9c 21 00 08 	l.addi r1,r1,0x8
    6590:	44 00 48 00 	l.jr r9
    6594:	84 41 ff fc 	l.lwz r2,0xfffffffc(r1)

00006598 <hwmsgbox_set_transmitter>:
*
* Returns    :  OK if set user succeeded, others if failed.
*********************************************************************************************************
*/
static s32 hwmsgbox_set_transmitter(u32 queue, u32 user)
{
    6598:	d7 e1 17 fc 	l.sw 0xfffffffc(r1),r2
	volatile u32 value;

	value  =  readl(MSGBOX_CTRL_REG(queue));
    659c:	9c 40 ff fc 	l.addi r2,r0,0xfffffffc
*
* Returns    :  OK if set user succeeded, others if failed.
*********************************************************************************************************
*/
static s32 hwmsgbox_set_transmitter(u32 queue, u32 user)
{
    65a0:	9c 21 ff f8 	l.addi r1,r1,0xfffffff8
	volatile u32 value;

	value  =  readl(MSGBOX_CTRL_REG(queue));
    65a4:	e0 a3 10 03 	l.and r5,r3,r2
    65a8:	18 40 03 00 	l.movhi r2,0x300
	value &= ~(1    << (4 + ((queue & 0x3)<<3)));
    65ac:	a4 63 00 03 	l.andi r3,r3,0x3
*/
static s32 hwmsgbox_set_transmitter(u32 queue, u32 user)
{
	volatile u32 value;

